(dp0
S'directed'
p1
I01
sS'links'
p2
(lp3
(dp4
S'source'
p5
I0
sS'target'
p6
I7
sS'value'
p7
I1
sa(dp8
g5
I1
sg6
I9
sg7
I1
sa(dp9
g5
I3
sg6
I8
sg7
I1
sa(dp10
g5
I4
sg6
I7
sg7
I1
sa(dp11
g5
I5
sg6
I7
sg7
I1
sa(dp12
g5
I6
sg6
I10
sg7
I1
sa(dp13
g5
I7
sg6
I2
sg7
I1
sa(dp14
g5
I8
sg6
I2
sg7
I1
sa(dp15
g5
I9
sg6
I2
sg7
I1
sa(dp16
g5
I10
sg6
I2
sg7
I1
sasS'multigraph'
p17
I00
sS'graph'
p18
(lp19
sS'nodes'
p20
(lp21
(dp22
S'group'
p23
I0
sS'comm_size'
p24
I10
sS'sentiment'
p25
(cnumpy.core.multiarray
scalar
p26
(cnumpy
dtype
p27
(S'f8'
p28
I0
I1
tp29
Rp30
(I3
S'<'
p31
NNNI-1
I-1
I0
tp32
bS'\xa6\xda\xd5\x0fl)\x16@'
p33
tp34
Rp35
g26
(g30
S'@\xa8\x05\xed\xbbW\xd7?'
p36
tp37
Rp38
tp39
sS'density'
p40
F1.0
sS'topics'
p41
(dp42
I0
(lp43
(S'hadoop'
p44
F0.017163452172219307
tp45
a(S'nosql'
p46
F0.012682641729982713
tp47
a(S'donaldpminer'
p48
F0.011124098967465638
tp49
a(S'great'
p50
F0.010344827586207098
tp51
a(S'apache'
p52
F0.00995519189557783
tp53
asI1
(lp54
(S'accumulo'
p55
F0.03730983302411954
tp56
a(S'data'
p57
F0.015046382189239656
tp58
a(S'nlproc'
p59
F0.014860853432282323
tp60
a(S'summit'
p61
F0.012820037105751667
tp62
a(S'bigdata'
p63
F0.01133580705009301
tp64
asI2
(lp65
(S'accumulosummit'
p66
F0.01577821011673183
tp67
a(S'sqrrl'
p68
F0.01402723735408588
tp69
a(S'data'
p70
F0.013638132295720114
tp71
a(S'2014'
p72
F0.011692607003891282
tp73
a(S'check'
p74
F0.0103307392996111
tp75
assS'hashtags'
p76
(lp77
S'#hadoop'
p78
aS'#bigdata'
p79
aS'#accumulosummit'
p80
asS'modularity'
p81
g26
(g30
S'\xd1\x88RM\x8e`\xc7?'
p82
tp83
Rp84
sS'most_connected'
p85
(lp86
V@donaldpminer
p87
aV@drewfarris
p88
aV@aaroncordova
p89
asS'mentioned'
p90
(lp91
V@ApacheAccumulo
p92
aV@donaldpminer
p93
aV@aaroncordova
p94
asS'id'
p95
S'0-4'
p96
sS'name'
p97
g96
sa(dp98
g23
I0
sg24
I3
sg25
(g26
(g30
S'\xb8\xbbCZ\xc53\x16@'
p99
tp100
Rp101
g26
(g30
S',\x7f@\xdbv\x97\xd5?'
p102
tp103
Rp104
tp105
sg40
F1.0
sg41
(dp106
I0
(lp107
(S'armediallc'
p108
F0.02792418406649054
tp109
a(S'cloud'
p110
F0.021335901074396584
tp111
a(S'analytics'
p112
F0.017788364078653682
tp113
a(S'big'
p114
F0.015254409081694469
tp115
a(S'healthit'
p116
F0.010186499087776042
tp117
asI1
(lp118
(S'data'
p119
F0.039761735057529106
tp120
a(S'fedit'
p121
F0.015833418185520556
tp122
a(S'govtech'
p123
F0.014815191935647851
tp124
a(S'health'
p125
F0.011760513186029737
tp126
a(S'govit'
p127
F0.011760513186029737
tp128
asI2
(lp129
(S'bigdata'
p130
F0.03085884844983579
tp131
a(S'healthcareit'
p132
F0.014490660504525077
tp133
a(S'cloud'
p134
F0.013527825919506799
tp135
a(S'healthcare'
p136
F0.013527825919506799
tp137
a(S'tech'
p138
F0.008232235701906274
tp139
assg76
(lp140
S'#tech'
p141
aS'#innovation'
p142
aS'#healthit'
p143
asg81
g84
sg85
(lp144
V@ArmediaLLC
p145
aV@jnasr
p146
aV@GovTech_
p147
asg90
(lp148
V@ArmediaLLC
p149
aV@FedTechMagazine
p150
aV@dm_misc
p151
asg95
S'0-5'
p152
sg97
g152
sa(dp153
g23
I2
sg24
I57
sg25
(g26
(g30
S'\x19\x03H\x0c=I\x16@'
p154
tp155
Rp156
g26
(g30
S'{\xf1b\xf8\xae\xcc\xd6?'
p157
tp158
Rp159
tp160
sg40
F0.8583959899749374
sg41
(dp161
I0
(lp162
(S'data'
p163
F0.03608231700674457
tp164
a(S'big'
p165
F0.012945364548609846
tp166
a(S'cloud'
p167
F0.011115323111243258
tp168
a(S'time'
p169
F0.00579948845984507
tp170
a(S'good'
p171
F0.005668771214318885
tp172
asI1
(lp173
(S'bigdata'
p174
F0.013889434685597564
tp175
a(S'great'
p176
F0.008562458792347318
tp177
a(S'hadoop'
p178
F0.008213148897707958
tp179
a(S'business'
p180
F0.0072962104242796375
tp181
a(S'check'
p182
F0.006946900529640277
tp183
asI2
(lp184
(S'bigdata'
p185
F0.011007219789322805
tp186
a(S'analytics'
p187
F0.008201715741068486
tp188
a(S'today'
p189
F0.007938699736544643
tp190
a(S'2014'
p191
F0.0071934877237270906
tp192
a(S'accumulo'
p193
F0.0071934877237270906
tp194
assg76
(lp195
S'#bigdata'
p196
aS'#hadoop'
p197
aS'#cloud'
p198
asg81
g26
(g30
S'\x00\x00\x00\x00\x00\x00\x00\x00'
p199
tp200
Rp201
sg85
(lp202
V@RiCHi
p203
aV@kimdossey
p204
aV@BigDataBlogs
p205
asg90
(lp206
V@hortonworks
p207
aV@Forbes
p208
aV@VentureBeat
p209
asg95
S'2-0'
p210
sg97
S'2-0'
p211
sa(dp212
g23
I0
sg24
I11
sg25
(g26
(g30
S't\xebN\xc4\x86&\x16@'
p213
tp214
Rp215
g26
(g30
S'\x89\xdc6\xa3\xd7\x1c\xd9?'
p216
tp217
Rp218
tp219
sg40
F0.9818181818181818
sg41
(dp220
I0
(lp221
(S'check'
p222
F0.007590380301528321
tp223
a(S'catchajob'
p224
F0.005503677813135656
tp225
a(S'make'
p226
F0.005242840002086573
tp227
a(S'follow'
p228
F0.005242840002086573
tp229
a(S'awesome'
p230
F0.00498200219103749
tp231
asI1
(lp232
(S'job'
p233
F0.013637064050541523
tp234
a(S'love'
p235
F0.010041604602187826
tp236
a(S'great'
p237
F0.00901433047408677
tp238
a(S'phylogenomics'
p239
F0.006446145153834129
tp240
a(S'people'
p241
F0.0051620524937078084
tp242
asI2
(lp243
(S'naming'
p244
F0.016667547149875443
tp245
a(S'jobs'
p246
F0.01217708278303103
tp247
a(S'job'
p248
F0.00874319826720883
tp249
a(S'good'
p250
F0.007950763378942169
tp251
a(S'eatmywords'
p252
F0.006101748639653293
tp253
assg76
(lp254
S'#worldcup'
p255
aS'#syria'
p256
aS'#soundcloud'
p257
asg81
g84
sg85
(lp258
V@9b9965a5e2e34a9
p259
aV@ellehunts
p260
aV@luisang51225670
p261
asg90
(lp262
V@samfbiddle
p263
aV@Inc
p264
aV@LinkedIn
p265
asg95
S'0-0'
p266
sg97
g266
sa(dp267
g23
I0
sg24
I17
sg25
(g26
(g30
S'U6\x15\xdc\x8en\x16@'
p268
tp269
Rp270
g26
(g30
S',\x02\x04i\xec7\xd3?'
p271
tp272
Rp273
tp274
sg40
F0.9191176470588235
sg41
(dp275
I0
(lp276
(S'itpt'
p277
F0.03016385302879926
tp278
a(S'bigdata'
p279
F0.019346715846219865
tp280
a(S'open'
p281
F0.014026812313803769
tp282
a(S'mobile'
p283
F0.010480209958859708
tp284
a(S'google'
p285
F0.009061569016882083
tp286
asI1
(lp287
(S'data'
p288
F0.0363048815713469
tp289
a(S'qprize'
p290
F0.012835788561525431
tp291
a(S'big'
p292
F0.00940569035239768
tp293
a(S'hadoop'
p294
F0.007780906990179271
tp295
a(S'2014'
p296
F0.007419844020797402
tp297
asI2
(lp298
(S'telecomcouncil'
p299
F0.012879139723482935
tp300
a(S'business'
p301
F0.01019970704869453
tp302
a(S'interesting'
p303
F0.010021078203708636
tp304
a(S'great'
p305
F0.008234789753849699
tp306
a(S'innovation'
p307
F0.007698903218892018
tp308
assg76
(lp309
S'#bigdata'
p310
aS'#mobile'
p311
aS'#hadoop'
p312
asg81
g84
sg85
(lp313
V@CDP_FST
p314
aV@cmfriend1979
p315
aV@lulstrup
p316
asg90
(lp317
V@hortonworks
p318
aV@VentureBeat
p319
aV@ShareThis
p320
asg95
S'0-1'
p321
sg97
g321
sa(dp322
g23
I0
sg24
I6
sg25
(g26
(g30
S'h\xc2x\xdfyv\x16@'
p323
tp324
Rp325
g26
(g30
S'\x13\xec\x83X\xf4\xb3\xde?'
p326
tp327
Rp328
tp329
sg40
F0.9333333333333333
sg41
(dp330
I0
(lp331
(S'livehive'
p332
F0.03120915032679753
tp333
a(S'named'
p334
F0.016503267973856286
tp335
a(S'data'
p336
F0.014869281045751703
tp337
a(S'read'
p338
F0.011601307189542536
tp339
a(S'speaking'
p340
F0.011601307189542536
tp341
asI1
(lp342
(S'companies'
p343
F0.020033112582781554
tp344
a(S'acerocapital'
p345
F0.020033112582781554
tp346
a(S'ramiacero'
p347
F0.016721854304635842
tp348
a(S'great'
p349
F0.013410596026490132
tp350
a(S'venturesummit'
p351
F0.011754966887417275
tp352
asI2
(lp353
(S'gridstore'
p354
F0.07640287769784208
tp355
a(S'storage'
p356
F0.020287769784172755
tp357
a(S'bitzermobile'
p358
F0.013093525179856175
tp359
a(S'team'
p360
F0.01165467625899286
tp361
a(S'software'
p362
F0.01165467625899286
tp363
assg76
(lp364
S'#storage'
p365
aS'#clouddatacenter'
p366
aS'#acerocapital'
p367
asg81
g84
sg85
(lp368
V@AceroCapital
p369
aV@RamiAcero
p370
aV@ElisaAceroVC
p371
asg90
(lp372
V@LiveHive
p373
aV@RamiAcero
p374
aV@AceroCapital
p375
asg95
S'0-2'
p376
sg97
g376
sa(dp377
g23
I0
sg24
I10
sg25
(g26
(g30
S'\x99-\xc9=U]\x16@'
p378
tp379
Rp380
g26
(g30
S'\xad\x92\x92Q\x1f\xb1\xd6?'
p381
tp382
Rp383
tp384
sg40
F1.0
sg41
(dp385
I0
(lp386
(S'jonathansalem'
p387
F0.01903519388861889
tp388
a(S'teradata'
p389
F0.01793489366384323
tp390
a(S'cloud'
p391
F0.017777707917446706
tp392
a(S'social'
p393
F0.013848064257533642
tp394
a(S'sgi'
p395
F0.01196183530077537
tp396
asI1
(lp397
(S'today'
p398
F0.013059791623053986
tp399
a(S'2oh8vq0lws'
p400
F0.01064429378895029
tp401
a(S'day'
p402
F0.009194995088488072
tp403
a(S'feedback'
p404
F0.007906729576966101
tp405
a(S'histories'
p406
F0.007745696388025854
tp407
asI2
(lp408
(S'data'
p409
F0.06909337066724404
tp410
a(S'bigdata'
p411
F0.04324681918183545
tp412
a(S'big'
p413
F0.03924675764242697
tp414
a(S'bigdatanetwork'
p415
F0.012477115032539503
tp416
a(S'business'
p417
F0.010630932783581747
tp418
assg76
(lp419
S'#bigdata'
p420
aS'#cloud'
p421
aS'#data'
p422
asg81
g84
sg85
(lp423
V@RiCHi
p424
aV@kimdossey
p425
aV@BigDataBlogs
p426
asg90
(lp427
V@Forbes
p428
aV@BigDataNetwork
p429
aV@SAP
p430
asg95
S'0-3'
p431
sg97
g431
sa(dp432
g23
I1
sg24
I33
sg25
(g26
(g30
S'p\xaf\xad\xdc\x05N\x16@'
p433
tp434
Rp435
g26
(g30
S'\xef\xc7\xb7,\xda\x18\xd6?'
p436
tp437
Rp438
tp439
sg40
F0.8428030303030303
sg41
(dp440
I0
(lp441
(S'itpt'
p442
F0.01641043202422475
tp443
a(S'open'
p444
F0.01136384117657738
tp445
a(S'hadoop'
p446
F0.01001207577095755
tp447
a(S'great'
p448
F0.008389957284213753
tp449
a(S'nosql'
p450
F0.007669015734549842
tp451
asI1
(lp452
(S'2014'
p453
F0.009736203326908657
tp454
a(S'good'
p455
F0.007505175983437379
tp456
a(S'accumulosummit'
p457
F0.007326693795959676
tp458
a(S'time'
p459
F0.0066127650460488675
tp460
a(S'day'
p461
F0.006523523952310016
tp462
asI2
(lp463
(S'data'
p464
F0.031546485419253305
tp465
a(S'accumulo'
p466
F0.018616881868853165
tp467
a(S'bigdata'
p468
F0.01730644907658288
tp469
a(S'check'
p470
F0.008133419530690895
tp471
a(S'google'
p472
F0.0069103489245719634
tp473
assg76
(lp474
S'#bigdata'
p475
aS'#hadoop'
p476
aS'#accumulosummit'
p477
asg81
g26
(g30
S'\xf8\x17\x90\xa5\xfb\xec\xc8?'
p478
tp479
Rp480
sg85
(lp481
V@SqrrlData
p482
aV@donaldpminer
p483
aV@cmfriend1979
p484
asg90
(lp485
V@hortonworks
p486
aV@ArgyleData
p487
aV@VentureBeat
p488
asg95
S'1-1'
p489
sg97
S'1-1'
p490
sa(dp491
g23
I1
sg24
I11
sg25
(g26
(g30
S't\xebN\xc4\x86&\x16@'
p492
tp493
Rp494
g26
(g30
S'\x89\xdc6\xa3\xd7\x1c\xd9?'
p495
tp496
Rp497
tp498
sg40
F0.9818181818181818
sg41
(dp499
I0
(lp500
(S'job'
p501
F0.022428884026257655
tp502
a(S'naming'
p503
F0.015395436073772677
tp504
a(S'jobs'
p505
F0.012529957278315835
tp506
a(S'happening'
p507
F0.0075804939043449225
tp508
a(S'day'
p509
F0.007059497759716406
tp510
asI1
(lp511
(S'love'
p512
F0.01019609888390503
tp513
a(S'good'
p514
F0.00654532178992369
tp515
a(S'brand'
p516
F0.005763012412641973
tp517
a(S'make'
p518
F0.005241472827787496
tp519
a(S'people'
p520
F0.005241472827787496
tp521
asI2
(lp522
(S'check'
p523
F0.008099380176050627
tp524
a(S'follow'
p525
F0.006015938330121205
tp526
a(S'great'
p527
F0.006015938330121205
tp528
a(S'free'
p529
F0.005755508099380028
tp530
a(S'eatmywords'
p531
F0.005755508099380028
tp532
assg76
(lp533
S'#worldcup'
p534
aS'#syria'
p535
aS'#soundcloud'
p536
asg81
g480
sg85
(lp537
V@9b9965a5e2e34a9
p538
aV@ellehunts
p539
aV@luisang51225670
p540
asg90
(lp541
V@samfbiddle
p542
aV@Inc
p543
aV@LinkedIn
p544
asg95
S'1-0'
p545
sg97
S'1-0'
p546
sa(dp547
g23
I1
sg24
I3
sg25
(g26
(g30
S'\xb8\xbbCZ\xc53\x16@'
p548
tp549
Rp550
g26
(g30
S',\x7f@\xdbv\x97\xd5?'
p551
tp552
Rp553
tp554
sg40
F1.0
sg41
(dp555
I0
(lp556
(S'data'
p557
F0.038190421011973084
tp558
a(S'bigdata'
p559
F0.02853418308227066
tp560
a(S'govit'
p561
F0.017429509463112874
tp562
a(S'ehr'
p563
F0.010187331015836057
tp564
a(S'healthit'
p565
F0.009704519119350935
tp566
asI1
(lp567
(S'fedit'
p568
F0.02044666530695462
tp569
a(S'big'
p570
F0.01534774627778888
tp571
a(S'govtech'
p572
F0.011268611054456288
tp573
a(S'tech'
p574
F0.008719151539873416
tp575
a(S'blog'
p576
F0.008719151539873416
tp577
asI2
(lp578
(S'cloud'
p579
F0.036373726162848716
tp580
a(S'armediallc'
p581
F0.02779739683180256
tp582
a(S'analytics'
p583
F0.0192210675007564
tp584
a(S'healthcare'
p585
F0.012662698012309332
tp586
a(S'healthcareit'
p587
F0.012158208051659559
tp588
assg76
(lp589
S'#tech'
p590
aS'#innovation'
p591
aS'#healthit'
p592
asg81
g480
sg85
(lp593
V@ArmediaLLC
p594
aV@jnasr
p595
aV@GovTech_
p596
asg90
(lp597
V@ArmediaLLC
p598
aV@FedTechMagazine
p599
aV@dm_misc
p600
asg95
S'1-3'
p601
sg97
S'1-3'
p602
sa(dp603
g23
I1
sg24
I10
sg25
(g26
(g30
S'\x99-\xc9=U]\x16@'
p604
tp605
Rp606
g26
(g30
S'\xad\x92\x92Q\x1f\xb1\xd6?'
p607
tp608
Rp609
tp610
sg40
F1.0
sg41
(dp611
I0
(lp612
(S'data'
p613
F0.06914163156352039
tp614
a(S'social'
p615
F0.013593790985820454
tp616
a(S'today'
p617
F0.011433597185576568
tp618
a(S'business'
p619
F0.01127929762841629
tp620
a(S'media'
p621
F0.010816398956935458
tp622
asI1
(lp623
(S'bigdata'
p624
F0.03702431330907863
tp625
a(S'teradata'
p626
F0.022345758053686847
tp627
a(S'jonathansalem'
p628
F0.0189103515045526
tp629
a(S'sgi'
p630
F0.016099564327988217
tp631
a(S'big'
p632
F0.012820312621996437
tp633
asI2
(lp634
(S'big'
p635
F0.027978470639578167
tp636
a(S'cloud'
p637
F0.018118928704198223
tp638
a(S'bigdatanetwork'
p639
F0.015694451179104795
tp640
a(S'backup'
p641
F0.012138550808967766
tp642
a(S'day'
p643
F0.007936123098805824
tp644
assg76
(lp645
S'#bigdata'
p646
aS'#cloud'
p647
aS'#data'
p648
asg81
g480
sg85
(lp649
V@RiCHi
p650
aV@kimdossey
p651
aV@BigDataBlogs
p652
asg90
(lp653
V@Forbes
p654
aV@BigDataNetwork
p655
aV@SAP
p656
asg95
S'1-2'
p657
sg97
S'1-2'
p658
sasS'root'
p659
(dp660
S'id_'
p661
I1949955774
sS'description'
p662
VReal-time Analytics at Network Speed & Hadoop Scale
p663
sS'friends_count'
p664
I56
sS'followers_count'
p665
I63
sS'name_'
p666
VArgyle Data
p667
sS'screen_name'
p668
VArgyleData
p669
ss.