(dp0
S'directed'
p1
I01
sS'links'
p2
(lp3
(dp4
S'source'
p5
I0
sS'target'
p6
I9
sS'value'
p7
I1
sa(dp8
g5
I1
sg6
I7
sg7
I1
sa(dp9
g5
I2
sg6
I11
sg7
I1
sa(dp10
g5
I3
sg6
I8
sg7
I1
sa(dp11
g5
I4
sg6
I7
sg7
I1
sa(dp12
g5
I5
sg6
I8
sg7
I1
sa(dp13
g5
I6
sg6
I10
sg7
I1
sa(dp14
g5
I7
sg6
I12
sg7
I1
sa(dp15
g5
I8
sg6
I12
sg7
I1
sa(dp16
g5
I9
sg6
I12
sg7
I1
sa(dp17
g5
I10
sg6
I12
sg7
I1
sa(dp18
g5
I11
sg6
I12
sg7
I1
sasS'multigraph'
p19
I00
sS'graph'
p20
(lp21
sS'nodes'
p22
(lp23
(dp24
S'group'
p25
I0
sS'comm_size'
p26
I371
sS'sentiment'
p27
(cnumpy.core.multiarray
scalar
p28
(cnumpy
dtype
p29
(S'f8'
p30
I0
I1
tp31
Rp32
(I3
S'<'
p33
NNNI-1
I-1
I0
tp34
bS'\x00A\xffTSb\x16@'
p35
tp36
Rp37
g28
(g32
S'H\x82\x99\x9ap\xaa\xd9?'
p38
tp39
Rp40
tp41
sS'density'
p42
F0.9507831281416187
sS'topics'
p43
(dp44
I0
(lp45
(S'great'
p46
F0.012676393920397124
tp47
a(S'love'
p48
F0.008502801077032284
tp49
a(S'day'
p50
F0.007721742987774006
tp51
a(S'check'
p52
F0.006958571724987293
tp53
a(S'app'
p54
F0.006082117227880677
tp55
asI1
(lp56
(S'time'
p57
F0.00982332248430226
tp58
a(S'good'
p59
F0.009709730416137362
tp60
a(S'today'
p61
F0.008950457118403574
tp62
a(S'awesome'
p63
F0.006355775140321181
tp64
a(S'data'
p65
F0.006325882490804103
tp66
asI2
(lp67
(S'startup'
p68
F0.00941015209840426
tp69
a(S'team'
p70
F0.005825841748244594
tp71
a(S'twitter'
p72
F0.0049639429078247735
tp73
a(S'tech'
p74
F0.004833172049278318
tp75
a(S'big'
p76
F0.00476184249007116
tp77
assS'hashtags'
p78
(lp79
S'#startup'
p80
aS'#startups'
p81
aS'#marketing'
p82
asS'modularity'
p83
g28
(g32
S'\xb7s!WWx\xc1?'
p84
tp85
Rp86
sS'most_connected'
p87
(lp88
V@TechCocktail
p89
aV@JESS3
p90
aV@prose
p91
asS'mentioned'
p92
(lp93
V@TechCrunch
p94
aV@VentureBeat
p95
aV@Forbes
p96
asS'id'
p97
S'0-4'
p98
sS'name'
p99
g98
sa(dp100
g25
I0
sg26
I3
sg27
(g28
(g32
S'\xb1\xd31Q1A\x16@'
p101
tp102
Rp103
g28
(g32
S'f.y\x92\xf9\x81\xd8?'
p104
tp105
Rp106
tp107
sg42
F1.0
sg43
(dp108
I0
(lp109
(S'love'
p110
F0.012478980440746988
tp111
a(S'data'
p112
F0.009823878219311459
tp113
a(S'back'
p114
F0.008053810071687772
tp115
a(S'life'
p116
F0.0062837419240640855
tp117
a(S'make'
p118
F0.0062837419240640855
tp119
asI1
(lp120
(S'maccamojo'
p121
F0.016322481738659994
tp122
a(S'gogrow'
p123
F0.0073045360266931455
tp124
a(S'world'
p125
F0.006402741455496461
tp126
a(S'people'
p127
F0.006402741455496461
tp128
a(S'app'
p129
F0.005500946884299776
tp130
asI2
(lp131
(S'great'
p132
F0.014312383322962084
tp133
a(S'time'
p134
F0.012534447506445053
tp135
a(S'twitter'
p136
F0.008089607965152481
tp137
a(S'long'
p138
F0.004533736332118424
tp139
a(S'cabel'
p140
F0.004533736332118424
tp141
assg78
(lp142
S'#xero'
p143
aS'#wwdc'
p144
aS'#worldcup'
p145
asg83
g86
sg87
(lp146
V@robnelso
p147
aV@MilovPatel
p148
aV@LucianoFuentes
p149
asg92
(lp150
V@levie
p151
aV@TechCrunch
p152
aV@congressedits
p153
asg97
S'0-5'
p154
sg99
g154
sa(dp155
g25
I0
sg26
I2
sg27
(g28
(g32
S'\x98E\xd5@E1\x16@'
p156
tp157
Rp158
g28
(g32
S'\xadP\x80\x80\x0f\x8e\xe1?'
p159
tp160
Rp161
tp162
sg42
F1.0
sg43
(dp163
I0
(lp164
(S'playnik'
p165
F0.06921754084264828
tp166
a(S'desertblitz'
p167
F0.03482373172828888
tp168
a(S'update'
p169
F0.030524505588993955
tp170
a(S'beta'
p171
F0.026225279449699032
tp172
a(S'company'
p173
F0.021926053310404106
tp174
asI1
(lp175
(S'blitz'
p176
F0.04795821462488121
tp177
a(S'worldwidegames'
p178
F0.02896486229819558
tp179
a(S'wwg'
p180
F0.02896486229819558
tp181
a(S'desert'
p182
F0.02896486229819558
tp183
a(S'im'
p184
F0.019468186134852766
tp185
asI2
(lp186
(S'ow'
p187
F0.062242374278647886
tp188
a(S'browsergames'
p189
F0.053998351195383265
tp190
a(S'games'
p191
F0.029266281945589404
tp192
a(S'desert'
p193
F0.025144270403957093
tp194
a(S'fb'
p195
F0.021022258862324783
tp196
assg78
(lp197
S'#mmorpg'
p198
aS'#kostenlos'
p199
aS'#endzeit'
p200
asg83
g86
sg87
(lp201
V@worldwide_games
p202
aV@playnik
p203
asg92
(lp204
V@desertblitz_de
p205
aV@dergeekaholic
p206
aS'@<ProtectedUser>'
p207
asg97
S'0-6'
p208
sg99
g208
sa(dp209
g25
I0
sg26
I456
sg27
(g28
(g32
S')\xd9\xd7\xa6\x18V\x16@'
p210
tp211
Rp212
g28
(g32
S'\x02\xf1\x1f\\\xaf\x7f\xda?'
p213
tp214
Rp215
tp216
sg42
F0.863128976286871
sg43
(dp217
I0
(lp218
(S'people'
p219
F0.006864117540088794
tp220
a(S'data'
p221
F0.0066164027094016715
tp222
a(S'love'
p223
F0.006465357080933914
tp224
a(S'world'
p225
F0.006108889397750005
tp226
a(S'today'
p227
F0.004966984446533754
tp228
asI1
(lp229
(S'time'
p230
F0.0093324306940053
tp231
a(S'work'
p232
F0.005136725143312394
tp233
a(S'free'
p234
F0.004955875766127355
tp235
a(S'design'
p236
F0.004919705890690347
tp237
a(S'twitter'
p238
F0.004847366139816332
tp239
asI2
(lp240
(S'great'
p241
F0.010369065249410765
tp242
a(S'google'
p243
F0.007565472058031128
tp244
a(S'day'
p245
F0.00697333384088629
tp246
a(S'make'
p247
F0.0056621706457798664
tp248
a(S'top'
p249
F0.00464707655924586
tp250
assg78
(lp251
S'#google'
p252
aS'#apple'
p253
aS'#marketing'
p254
asg83
g86
sg87
(lp255
V@brandchannelhub
p256
aV@LouisSerge
p257
aV@ANDagency
p258
asg92
(lp259
V@TechCrunch
p260
aV@mashable
p261
aV@YouTube
p262
asg97
S'0-0'
p263
sg99
g263
sa(dp264
g25
I0
sg26
I138
sg27
(g28
(g32
S'\x93\x11\xb9\x7f\x919\x16@'
p265
tp266
Rp267
g28
(g32
S'\xaa+\xe6\xbb\xe3f\xd9?'
p268
tp269
Rp270
tp271
sg42
F0.9531365704009309
sg43
(dp272
I0
(lp273
(S'work'
p274
F0.006409921534618167
tp275
a(S'day'
p276
F0.005939756140880893
tp277
a(S'dataviz'
p278
F0.0056088990119546635
tp279
a(S'world'
p280
F0.005591485478853283
tp281
a(S'science'
p282
F0.005016838886507726
tp283
asI1
(lp284
(S'data'
p285
F0.03820315144480516
tp286
a(S'today'
p287
F0.0072033517777804965
tp288
a(S'people'
p289
F0.006944300527081126
tp290
a(S'big'
p291
F0.006685249276381755
tp292
a(S'google'
p293
F0.006443468109062343
tp294
asI2
(lp295
(S'great'
p296
F0.008800254448525452
tp297
a(S'time'
p298
F0.008195247758880215
tp299
a(S'good'
p300
F0.007434667920469058
tp301
a(S'make'
p302
F0.005031927067306539
tp303
a(S'awesome'
p304
F0.004651637148100961
tp305
assg78
(lp306
S'#dataviz'
p307
aS'#bigdata'
p308
aS'#opendata'
p309
asg83
g86
sg87
(lp310
V@albertocairo
p311
aV@alignedleft
p312
aV@visualoop
p313
asg92
(lp314
V@TechCrunch
p315
aV@nytimes
p316
aV@albertocairo
p317
asg97
S'0-1'
p318
sg99
g318
sa(dp319
g25
I0
sg26
I211
sg27
(g28
(g32
S'E.\xcd;36\x16@'
p320
tp321
Rp322
g28
(g32
S'i\xb7\x1f%\x8b\xcd\xda?'
p323
tp324
Rp325
tp326
sg42
F0.9450236966824644
sg43
(dp327
I0
(lp328
(S'today'
p329
F0.007252758198073071
tp330
a(S'check'
p331
F0.005114949718989399
tp332
a(S'talk'
p333
F0.004228245065733103
tp334
a(S'time'
p335
F0.00403389884036186
tp336
a(S'twitter'
p337
F0.003961019005847644
tp338
asI1
(lp339
(S'great'
p340
F0.011023036457078136
tp341
a(S'time'
p342
F0.007025043959692284
tp343
a(S'day'
p344
F0.006733397090582069
tp345
a(S'love'
p346
F0.006150103352361641
tp347
a(S'make'
p348
F0.0059678240591677575
tp349
asI2
(lp350
(S'good'
p351
F0.0070385111759440535
tp352
a(S'work'
p353
F0.007002360630613062
tp354
a(S'google'
p355
F0.0065203533595331745
tp356
a(S'awesome'
p357
F0.005255084272948471
tp358
a(S'design'
p359
F0.005146632636955496
tp360
assg78
(lp361
S'#worldcup'
p362
aS'#javascript'
p363
aS'#startup'
p364
asg83
g86
sg87
(lp365
V@beaugunderson
p366
aV@GordonSuttie
p367
aV@cmfriend1979
p368
asg92
(lp369
V@github
p370
aV@YouTube
p371
aV@TechCrunch
p372
asg97
S'0-2'
p373
sg99
g373
sa(dp374
g25
I0
sg26
I224
sg27
(g28
(g32
S'\x0e\xb5\xe0\x83\xa0_\x16@'
p375
tp376
Rp377
g28
(g32
S'\x87\xe4B\x96 u\xd6?'
p378
tp379
Rp380
tp381
sg42
F0.9602017937219731
sg43
(dp382
I0
(lp383
(S'data'
p384
F0.022594292743460514
tp385
a(S'bigdata'
p386
F0.012588945717653097
tp387
a(S'business'
p388
F0.010809792231228452
tp389
a(S'great'
p390
F0.01041761323690904
tp391
a(S'today'
p392
F0.0071940932104299785
tp393
asI1
(lp394
(S'analytics'
p395
F0.022012340556441374
tp396
a(S'cloud'
p397
F0.01822718774646604
tp398
a(S'big'
p399
F0.009976512887253979
tp400
a(S'data'
p401
F0.008098310480278877
tp402
a(S'time'
p403
F0.007302949256916971
tp404
asI2
(lp405
(S'data'
p406
F0.01593639572599024
tp407
a(S'google'
p408
F0.008097571874191075
tp409
a(S'check'
p410
F0.006827701505994621
tp411
a(S'big'
p412
F0.006589004068363708
tp413
a(S'hadoop'
p414
F0.0064075940157642145
tp415
assg78
(lp416
S'#bigdata'
p417
aS'#analytics'
p418
aS'#cloud'
p419
asg83
g86
sg87
(lp420
V@mgualtieri
p421
aV@eric_kavanagh
p422
aV@marksmithvr
p423
asg92
(lp424
V@Forbes
p425
aV@TechCrunch
p426
aV@gigaom
p427
asg97
S'0-3'
p428
sg99
g428
sa(dp429
g25
I1
sg26
I141
sg27
(g28
(g32
S'\xe0\x01\r\x15\xb39\x16@'
p430
tp431
Rp432
g28
(g32
S'B\xec\xf5\xd2\tc\xd9?'
p433
tp434
Rp435
tp436
sg42
F0.9517730496453901
sg43
(dp437
I0
(lp438
(S'people'
p439
F0.007040118916528834
tp440
a(S'work'
p441
F0.0061153647898137846
tp442
a(S'google'
p443
F0.006029739407710539
tp444
a(S'day'
p445
F0.005909863872765995
tp446
a(S'dataviz'
p447
F0.004830984058265104
tp448
asI1
(lp449
(S'good'
p450
F0.008552220323997642
tp451
a(S'make'
p452
F0.005605528198820203
tp453
a(S'big'
p454
F0.004941245002970954
tp455
a(S'science'
p456
F0.004907179198055608
tp457
a(S'check'
p458
F0.004345093416952397
tp459
asI2
(lp460
(S'data'
p461
F0.03698796548398866
tp462
a(S'great'
p463
F0.010404612525178616
tp464
a(S'time'
p465
F0.008269811713954866
tp466
a(S'today'
p467
F0.005982525130500846
tp468
a(S'love'
p469
F0.004084924409413067
tp470
assg78
(lp471
S'#dataviz'
p472
aS'#bigdata'
p473
aS'#opendata'
p474
asg83
g28
(g32
S'/sy*R\x8b\xc1?'
p475
tp476
Rp477
sg87
(lp478
V@albertocairo
p479
aV@alignedleft
p480
aV@visualoop
p481
asg92
(lp482
V@TechCrunch
p483
aV@nytimes
p484
aV@albertocairo
p485
asg97
S'1-1'
p486
sg99
S'1-1'
p487
sa(dp488
g25
I1
sg26
I667
sg27
(g28
(g32
S'f\xb8t+5K\x16@'
p489
tp490
Rp491
g28
(g32
S'%t\xafw\xa9\x9e\xda?'
p492
tp493
Rp494
tp495
sg42
F0.8622850736793766
sg43
(dp496
I0
(lp497
(S'great'
p498
F0.011143624011672997
tp499
a(S'good'
p500
F0.009360221678136325
tp501
a(S'today'
p502
F0.006435279354340416
tp503
a(S'work'
p504
F0.005842166049792911
tp505
a(S'world'
p506
F0.004850935595617631
tp507
asI1
(lp508
(S'google'
p509
F0.007271887219372746
tp510
a(S'data'
p511
F0.00615944397326246
tp512
a(S'time'
p513
F0.006082303748167222
tp514
a(S'make'
p515
F0.005814342966257445
tp516
a(S'awesome'
p517
F0.0045557392936509174
tp518
asI2
(lp519
(S'people'
p520
F0.006920408198908522
tp521
a(S'love'
p522
F0.006493999619080228
tp523
a(S'day'
p524
F0.00617723895977921
tp525
a(S'check'
p526
F0.005596511084394011
tp527
a(S'video'
p528
F0.005369093175152254
tp529
assg78
(lp530
S'#worldcup'
p531
aS'#google'
p532
aS'#design'
p533
asg83
g477
sg87
(lp534
V@brandchannelhub
p535
aV@LouisSerge
p536
aV@beaugunderson
p537
asg92
(lp538
V@TechCrunch
p539
aV@YouTube
p540
aV@mashable
p541
asg97
S'1-0'
p542
sg99
S'1-0'
p543
sa(dp544
g25
I1
sg26
I371
sg27
(g28
(g32
S'\x00A\xffTSb\x16@'
p545
tp546
Rp547
g28
(g32
S'H\x82\x99\x9ap\xaa\xd9?'
p548
tp549
Rp550
tp551
sg42
F0.9507831281416187
sg43
(dp552
I0
(lp553
(S'great'
p554
F0.010295284758400773
tp555
a(S'startup'
p556
F0.009398286317157615
tp557
a(S'today'
p558
F0.008905234193825284
tp559
a(S'love'
p560
F0.008596334068364063
tp561
a(S'people'
p562
F0.006261761966320612
tp563
asI1
(lp564
(S'good'
p565
F0.009780698448710462
tp566
a(S'time'
p567
F0.009684991045383836
tp568
a(S'check'
p569
F0.006969293475990802
tp570
a(S'app'
p571
F0.006072036569803677
tp572
a(S'back'
p573
F0.004785968337602129
tp574
asI2
(lp575
(S'day'
p576
F0.0072335695826399714
tp577
a(S'make'
p578
F0.006309323201212888
tp579
a(S'awesome'
p580
F0.0062914345615723635
tp581
a(S'google'
p582
F0.0055162601771496485
tp583
a(S'great'
p584
F0.004931897948892525
tp585
assg78
(lp586
S'#startup'
p587
aS'#startups'
p588
aS'#marketing'
p589
asg83
g477
sg87
(lp590
V@TechCocktail
p591
aV@JESS3
p592
aV@prose
p593
asg92
(lp594
V@TechCrunch
p595
aV@VentureBeat
p596
aV@Forbes
p597
asg97
S'1-3'
p598
sg99
S'1-3'
p599
sa(dp600
g25
I1
sg26
I224
sg27
(g28
(g32
S'\x0e\xb5\xe0\x83\xa0_\x16@'
p601
tp602
Rp603
g28
(g32
S'\x87\xe4B\x96 u\xd6?'
p604
tp605
Rp606
tp607
sg42
F0.9602017937219731
sg43
(dp608
I0
(lp609
(S'data'
p610
F0.033711887174539754
tp611
a(S'big'
p612
F0.01931738450364537
tp613
a(S'cloud'
p614
F0.01833680661005931
tp615
a(S'marketing'
p616
F0.008550068021646989
tp617
a(S'check'
p618
F0.006417549107440414
tp619
asI1
(lp620
(S'bigdata'
p621
F0.014758472856452322
tp622
a(S'business'
p623
F0.009903270161331799
tp624
a(S'google'
p625
F0.008329647153427126
tp626
a(S'today'
p627
F0.007216596733201867
tp628
a(S'2014'
p629
F0.005758116872217047
tp630
asI2
(lp631
(S'analytics'
p632
F0.022783951498490183
tp633
a(S'data'
p634
F0.012551724005791173
tp635
a(S'great'
p636
F0.010290669990550567
tp637
a(S'bi'
p638
F0.006937411917100519
tp639
a(S'mobile'
p640
F0.005433236152724353
tp641
assg78
(lp642
S'#bigdata'
p643
aS'#analytics'
p644
aS'#cloud'
p645
asg83
g477
sg87
(lp646
V@mgualtieri
p647
aV@eric_kavanagh
p648
aV@marksmithvr
p649
asg92
(lp650
V@Forbes
p651
aV@TechCrunch
p652
aV@gigaom
p653
asg97
S'1-2'
p654
sg99
S'1-2'
p655
sa(dp656
g25
I1
sg26
I2
sg27
(g28
(g32
S'\x98E\xd5@E1\x16@'
p657
tp658
Rp659
g28
(g32
S'\xadP\x80\x80\x0f\x8e\xe1?'
p660
tp661
Rp662
tp663
sg42
F1.0
sg43
(dp664
I0
(lp665
(S'blitz'
p666
F0.05270034843205565
tp667
a(S'desertblitz'
p668
F0.03963414634146334
tp669
a(S'desert'
p670
F0.03963414634146334
tp671
a(S'games'
p672
F0.035278745644599235
tp673
a(S'www'
p674
F0.02656794425087103
tp675
asI1
(lp676
(S'browsergames'
p677
F0.05583972719522584
tp678
a(S'worldwidegames'
p679
F0.02173913043478258
tp680
a(S'fb'
p681
F0.02173913043478258
tp682
a(S'de'
p683
F0.01747655583972717
tp684
a(S'facebook'
p685
F0.01747655583972717
tp686
asI2
(lp687
(S'playnik'
p688
F0.07265342960288801
tp689
a(S'ow'
p690
F0.06814079422382664
tp691
a(S'wwg'
p692
F0.027527075812274336
tp693
a(S'online'
p694
F0.018501805054151603
tp695
a(S'ist'
p696
F0.013989169675090238
tp697
assg78
(lp698
S'#mmorpg'
p699
aS'#kostenlos'
p700
aS'#endzeit'
p701
asg83
g477
sg87
(lp702
V@worldwide_games
p703
aV@playnik
p704
asg92
(lp705
V@desertblitz_de
p706
aV@dergeekaholic
p707
aS'@<ProtectedUser>'
p708
asg97
S'1-4'
p709
sg99
S'1-4'
p710
sa(dp711
g25
I2
sg26
I1405
sg27
(g28
(g32
S'n\x10\x927\xb9S\x16@'
p712
tp713
Rp714
g28
(g32
S'\xfe\xd1\x83\xd4a\x93\xd9?'
p715
tp716
Rp717
tp718
sg42
F0.878519937950543
sg43
(dp719
I0
(lp720
(S'love'
p721
F0.006218224138035561
tp722
a(S'check'
p723
F0.006214708136713554
tp724
a(S'work'
p725
F0.005871898007817867
tp726
a(S'business'
p727
F0.005657421927175437
tp728
a(S'analytics'
p729
F0.005314611798279751
tp730
asI1
(lp731
(S'data'
p732
F0.016677880674753117
tp733
a(S'great'
p734
F0.012284319670851938
tp735
a(S'good'
p736
F0.006990725287074425
tp737
a(S'day'
p738
F0.006721589091926938
tp739
a(S'world'
p740
F0.005676501788691893
tp741
asI2
(lp742
(S'today'
p743
F0.007229463606828146
tp744
a(S'google'
p745
F0.006109161019775036
tp746
a(S'awesome'
p747
F0.004790434933761109
tp748
a(S'make'
p749
F0.0046394223593307525
tp750
a(S'big'
p751
F0.00427593860459722
tp752
assg78
(lp753
S'#bigdata'
p754
aS'#startup'
p755
aS'#analytics'
p756
asg83
g28
(g32
S'\x00\x00\x00\x00\x00\x00\x00\x00'
p757
tp758
Rp759
sg87
(lp760
V@brandchannelhub
p761
aV@JESS3
p762
aV@mgualtieri
p763
asg92
(lp764
V@TechCrunch
p765
aV@mashable
p766
aV@YouTube
p767
asg97
S'2-0'
p768
sg99
S'2-0'
p769
sasS'root'
p770
(dp771
S'id_'
p772
I149304798
sS'description'
p773
VCloud Business Intelligence
p774
sS'friends_count'
p775
I460
sS'followers_count'
p776
I1487
sS'name_'
p777
VChartio
p778
sS'screen_name'
p779
Vchartio
p780
ss.