(dp0
S'directed'
p1
I01
sS'links'
p2
(lp3
(dp4
S'source'
p5
I0
sS'target'
p6
I7
sS'value'
p7
I1
sa(dp8
g5
I2
sg6
I7
sg7
I1
sa(dp9
g5
I3
sg6
I6
sg7
I1
sa(dp10
g5
I4
sg6
I9
sg7
I1
sa(dp11
g5
I5
sg6
I8
sg7
I1
sa(dp12
g5
I6
sg6
I1
sg7
I1
sa(dp13
g5
I7
sg6
I1
sg7
I1
sa(dp14
g5
I8
sg6
I1
sg7
I1
sa(dp15
g5
I9
sg6
I1
sg7
I1
sasS'multigraph'
p16
I00
sS'graph'
p17
(lp18
sS'nodes'
p19
(lp20
(dp21
S'group'
p22
I0
sS'comm_size'
p23
I12
sS'sentiment'
p24
(cnumpy.core.multiarray
scalar
p25
(cnumpy
dtype
p26
(S'f8'
p27
I0
I1
tp28
Rp29
(I3
S'<'
p30
NNNI-1
I-1
I0
tp31
bS'\x1d\x83\\Q\x1f\x1a\x16@'
p32
tp33
Rp34
g25
(g29
S'R\x89\x86`\xf9\xe9\xd7?'
p35
tp36
Rp37
tp38
sS'density'
p39
F1.0
sS'topics'
p40
(dp41
I0
(lp42
(S'data'
p43
F0.020296287587079596
tp44
a(S'cloudera'
p45
F0.019414479292202858
tp46
a(S'great'
p47
F0.007950971458805259
tp48
a(S'time'
p49
F0.006628259016490151
tp50
a(S'search'
p51
F0.006628259016490151
tp52
asI1
(lp53
(S'strataconf'
p54
F0.015955248553549052
tp55
a(S'learning'
p56
F0.008132601251623985
tp57
a(S'big'
p58
F0.007837407013815492
tp59
a(S'spark'
p60
F0.007394615657102752
tp61
a(S'twitter'
p62
F0.007099421419294259
tp63
asI2
(lp64
(S'hadoop'
p65
F0.013599589446356995
tp66
a(S'graph'
p67
F0.006052647467246566
tp68
a(S'impala'
p69
F0.005750769788082148
tp70
a(S'data'
p71
F0.005750769788082148
tp72
a(S'talk'
p73
F0.005147014429753314
tp74
assS'hashtags'
p75
(lp76
S'#bigdata'
p77
aS'#hadoop'
p78
aS'#python'
p79
asS'modularity'
p80
g25
(g29
S'\tvgi\x16\xdf\xba?'
p81
tp82
Rp83
sS'most_connected'
p84
(lp85
V@hackingdata
p86
aV@ChrisDiehl
p87
aV@mat_kelcey
p88
asS'mentioned'
p89
(lp90
V@CIA
p91
aV@squarecog
p92
aV@ChrisDiehl
p93
asS'id'
p94
S'0-4'
p95
sS'name'
p96
g95
sa(dp97
g22
I2
sg23
I348
sg24
(g25
(g29
S'\xe9\x9e\x15ic2\x16@'
p98
tp99
Rp100
g25
(g29
S'\xf3N\xc3\x80#\xaf\xd7?'
p101
tp102
Rp103
tp104
sg39
F0.9068038027095963
sg40
(dp105
I0
(lp106
(S'good'
p107
F0.00834402011892126
tp108
a(S'science'
p109
F0.005599954952923014
tp110
a(S'analytics'
p111
F0.004759287589929331
tp112
a(S'free'
p113
F0.0046641176997791025
tp114
a(S'love'
p115
F0.004394469677686789
tp116
asI1
(lp117
(S'great'
p118
F0.008452737241838041
tp119
a(S'people'
p120
F0.006031069047022507
tp121
a(S'work'
p122
F0.00583988471585286
tp123
a(S'world'
p124
F0.005792088633060448
tp125
a(S'open'
p126
F0.004844132991010945
tp127
asI2
(lp128
(S'data'
p129
F0.027965726934091925
tp130
a(S'time'
p131
F0.009462195124852862
tp132
a(S'learning'
p133
F0.00858408822839047
tp134
a(S'big'
p135
F0.007611050856634846
tp136
a(S'day'
p137
F0.006147539362530858
tp138
assg75
(lp139
S'#bigdata'
p140
aS'#datascience'
p141
aS'#python'
p142
asg80
g25
(g29
S'\x00\x00\x00\x00\x00\x00\x00\x00'
p143
tp144
Rp145
sg84
(lp146
V@hackingdata
p147
aV@MindisZ
p148
aV@rohit_bmw
p149
asg89
(lp150
V@TechCrunch
p151
aV@YouTube
p152
aV@kdnuggets
p153
asg94
S'2-0'
p154
sg96
S'2-0'
p155
sa(dp156
g22
I0
sg23
I116
sg24
(g25
(g29
S'.\xf0\xf9\x816&\x16@'
p157
tp158
Rp159
g25
(g29
S'\xfe\xe1@U\x03\x9b\xd7?'
p160
tp161
Rp162
tp163
sg39
F0.9493253373313343
sg40
(dp164
I0
(lp165
(S'great'
p166
F0.00928229966490447
tp167
a(S'python'
p168
F0.00896731690415334
tp169
a(S'good'
p170
F0.008700793029671614
tp171
a(S'google'
p172
F0.007343944214128283
tp173
a(S'data'
p174
F0.006786667022030128
tp175
asI1
(lp176
(S'data'
p177
F0.02696916065342236
tp178
a(S'science'
p179
F0.010492131500101535
tp180
a(S'learning'
p181
F0.0067560609362671605
tp182
a(S'video'
p183
F0.00503172067603591
tp184
a(S'nice'
p185
F0.005007771505754921
tp186
asI2
(lp187
(S'time'
p188
F0.009374749606044487
tp189
a(S'big'
p190
F0.0068981257784958274
tp191
a(S'machine'
p192
F0.006801003275454704
tp193
a(S'learning'
p194
F0.006339671386009365
tp195
a(S'open'
p196
F0.004785711337351382
tp197
assg75
(lp198
S'#bigdata'
p199
aS'#datascience'
p200
aS'#machinelearning'
p201
asg80
g83
sg84
(lp202
V@tc_fuji
p203
aV@robanhk
p204
aV@marzagao
p205
asg89
(lp206
V@hmason
p207
aV@kdnuggets
p208
aV@bigdata
p209
asg94
S'0-0'
p210
sg96
g210
sa(dp211
g22
I0
sg23
I120
sg24
(g25
(g29
S'\xd3vV\xfd\xd87\x16@'
p212
tp213
Rp214
g25
(g29
S'\xdc\x0cK\xf8\x91\xf1\xd7?'
p215
tp216
Rp217
tp218
sg39
F0.9313725490196079
sg40
(dp219
I0
(lp220
(S'big'
p221
F0.0071811460858302424
tp222
a(S'good'
p223
F0.005516140820521815
tp224
a(S'work'
p225
F0.004975554695421676
tp226
a(S'make'
p227
F0.004478215460329549
tp228
a(S'2014'
p229
F0.00413224034026546
tp230
asI1
(lp231
(S'time'
p232
F0.00924952838501816
tp233
a(S'world'
p234
F0.00683433748702471
tp235
a(S'people'
p236
F0.0067690620573492115
tp237
a(S'stories'
p238
F0.005420036510722238
tp239
a(S'tech'
p240
F0.004702006784291753
tp241
asI2
(lp242
(S'data'
p243
F0.01841826283629007
tp244
a(S'great'
p245
F0.007577588102248639
tp246
a(S'day'
p247
F0.007577588102248639
tp248
a(S'today'
p249
F0.007120451215873397
tp250
a(S'seattle'
p251
F0.006053798480997835
tp252
assg75
(lp253
S'#bigdata'
p254
aS'#worldcup'
p255
aS'#seattle'
p256
asg80
g83
sg84
(lp257
V@rohit_bmw
p258
aV@Atmel
p259
aV@ultiget
p260
asg89
(lp261
V@TechCrunch
p262
aV@Forbes
p263
aV@gigaom
p264
asg94
S'0-1'
p265
sg96
g265
sa(dp266
g22
I0
sg23
I35
sg24
(g25
(g29
S'\xab\x1c&\x90\x15B\x16@'
p267
tp268
Rp269
g25
(g29
S'\x94nI\x1b=\x8e\xd7?'
p270
tp271
Rp272
tp273
sg39
F0.9109243697478991
sg40
(dp274
I0
(lp275
(S'graph'
p276
F0.016004751534350836
tp277
a(S'big'
p278
F0.008402296574936286
tp279
a(S'lines'
p280
F0.00602652940011924
tp281
a(S'atigeo'
p282
F0.005551375965155831
tp283
a(S'post'
p284
F0.005551375965155831
tp285
asI1
(lp286
(S'bigdata'
p287
F0.007972871732187812
tp288
a(S'graphs'
p289
F0.007499704270336903
tp290
a(S'visualization'
p291
F0.007184259295769631
tp292
a(S'keylines'
p293
F0.00639564685935145
tp294
a(S'today'
p295
F0.006316785615709631
tp296
asI2
(lp297
(S'neo4j'
p298
F0.032219505569141285
tp299
a(S'data'
p300
F0.02112003725695819
tp301
a(S'graphdb'
p302
F0.012193891411496256
tp303
a(S'great'
p304
F0.011572942135290209
tp305
a(S'graph'
p306
F0.007303915861373632
tp307
assg75
(lp308
S'#bigdata'
p309
aS'#neo4j'
p310
aS'#graphdb'
p311
asg80
g83
sg84
(lp312
V@Linkurious
p313
aV@maxdemarzi
p314
aV@twarko
p315
asg89
(lp316
V@neo4j
p317
aV@maxdemarzi
p318
aV@peterneubauer
p319
asg94
S'0-2'
p320
sg96
g320
sa(dp321
g22
I0
sg23
I65
sg24
(g25
(g29
S'1\x80\xf5\xd7\xca;\x16@'
p322
tp323
Rp324
g25
(g29
S'A\xa4\x89\xc9}>\xd7?'
p325
tp326
Rp327
tp328
sg39
F0.98125
sg40
(dp329
I0
(lp330
(S'hadoop'
p331
F0.013087086898075521
tp332
a(S'learning'
p333
F0.011064005790506305
tp334
a(S'spark'
p335
F0.010119901273640671
tp336
a(S'great'
p337
F0.008591351103477265
tp338
a(S'post'
p339
F0.007377502438935736
tp340
asI1
(lp341
(S'big'
p342
F0.011165029039788108
tp343
a(S'time'
p344
F0.0097364767436137
tp345
a(S'bigdata'
p346
F0.006477591817965832
tp347
a(S'scala'
p348
F0.005674031151367727
tp349
a(S'job'
p350
F0.004557974669981471
tp351
asI2
(lp352
(S'data'
p353
F0.02637851227150668
tp354
a(S'machine'
p355
F0.01069664042626035
tp356
a(S'google'
p357
F0.008112695633577716
tp358
a(S'cloud'
p359
F0.0064197662866477155
tp360
a(S'work'
p361
F0.006241563197497189
tp362
assg75
(lp363
S'#bigdata'
p364
aS'#hadoop'
p365
aS'#spark'
p366
asg80
g83
sg84
(lp367
V@MindisZ
p368
aV@cmfriend1979
p369
aV@alexandermikuta
p370
asg89
(lp371
V@TechCrunch
p372
aV@YouTube
p373
aV@ApacheSpark
p374
asg94
S'0-3'
p375
sg96
g375
sa(dp376
g22
I1
sg23
I120
sg24
(g25
(g29
S'\xd3vV\xfd\xd87\x16@'
p377
tp378
Rp379
g25
(g29
S'\xdc\x0cK\xf8\x91\xf1\xd7?'
p380
tp381
Rp382
tp383
sg39
F0.9313725490196079
sg40
(dp384
I0
(lp385
(S'data'
p386
F0.018391039449111697
tp387
a(S'big'
p388
F0.007175135471163895
tp389
a(S'people'
p390
F0.006740410510778321
tp391
a(S'day'
p392
F0.005740543101891502
tp393
a(S'make'
p394
F0.005240609397448091
tp395
asI1
(lp396
(S'time'
p397
F0.009411718687181226
tp398
a(S'world'
p399
F0.006934378741813736
tp400
a(S'news'
p401
F0.005413205091149488
tp402
a(S'stories'
p403
F0.005391474038997142
tp404
a(S'cloud'
p405
F0.004587425109360325
tp406
asI2
(lp407
(S'good'
p408
F0.007937970646202074
tp409
a(S'today'
p410
F0.0070273047976894066
tp411
a(S'seattle'
p412
F0.005813083666339185
tp413
a(S'great'
p414
F0.005140925540056026
tp415
a(S'check'
p416
F0.004642227575394328
tp417
assg75
(lp418
S'#bigdata'
p419
aS'#worldcup'
p420
aS'#seattle'
p421
asg80
g25
(g29
S'\\\xc1\xd1\x84\x820\xbb?'
p422
tp423
Rp424
sg84
(lp425
V@rohit_bmw
p426
aV@Atmel
p427
aV@ultiget
p428
asg89
(lp429
V@TechCrunch
p430
aV@Forbes
p431
aV@gigaom
p432
asg94
S'1-1'
p433
sg96
S'1-1'
p434
sa(dp435
g22
I1
sg23
I128
sg24
(g25
(g29
S'\xa1;\x81g\xb2$\x16@'
p436
tp437
Rp438
g25
(g29
S'\xb1\xd7\xf22O\xa5\xd7?'
p439
tp440
Rp441
tp442
sg39
F0.9541092519685039
sg40
(dp443
I0
(lp444
(S'science'
p445
F0.009516883508816626
tp446
a(S'machine'
p447
F0.007861226611224657
tp448
a(S'people'
p449
F0.006645681040840679
tp450
a(S'today'
p451
F0.005472050834952701
tp452
a(S'day'
p453
F0.005178643283480705
tp454
asI1
(lp455
(S'data'
p456
F0.025765843324422413
tp457
a(S'google'
p458
F0.007788201433989283
tp459
a(S'python'
p460
F0.007746000396687797
tp461
a(S'work'
p462
F0.006184562016532807
tp463
a(S'learn'
p464
F0.004391017931219641
tp465
asI2
(lp466
(S'learning'
p467
F0.012456399472618254
tp468
a(S'data'
p469
F0.010912648742466268
tp470
a(S'good'
p471
F0.008951668085246178
tp472
a(S'great'
p473
F0.00828410020193721
tp474
a(S'big'
p475
F0.007950316260282728
tp476
assg75
(lp477
S'#bigdata'
p478
aS'#datascience'
p479
aS'#python'
p480
asg80
g424
sg84
(lp481
V@hackingdata
p482
aV@ChrisDiehl
p483
aV@tc_fuji
p484
asg89
(lp485
V@hmason
p486
aV@kdnuggets
p487
aV@bigdata
p488
asg94
S'1-0'
p489
sg96
S'1-0'
p490
sa(dp491
g22
I1
sg23
I65
sg24
(g25
(g29
S'1\x80\xf5\xd7\xca;\x16@'
p492
tp493
Rp494
g25
(g29
S'A\xa4\x89\xc9}>\xd7?'
p495
tp496
Rp497
tp498
sg39
F0.98125
sg40
(dp499
I0
(lp500
(S'data'
p501
F0.02918935473555342
tp502
a(S'spark'
p503
F0.01018317097007966
tp504
a(S'machine'
p505
F0.006985448109063933
tp506
a(S'scala'
p507
F0.006760256358288178
tp508
a(S'apache'
p509
F0.006084681105960912
tp510
asI1
(lp511
(S'time'
p512
F0.009402845468417948
tp513
a(S'good'
p514
F0.00810497531808896
tp515
a(S'google'
p516
F0.007925958745629789
tp517
a(S'great'
p518
F0.005553989160545775
tp519
a(S'check'
p520
F0.005195956015627433
tp521
asI2
(lp522
(S'big'
p523
F0.009941310336565888
tp524
a(S'learning'
p525
F0.008965367331637511
tp526
a(S'hadoop'
p527
F0.008610478966209008
tp528
a(S'post'
p529
F0.006525509819316565
tp530
a(S'work'
p531
F0.006214982499566626
tp532
assg75
(lp533
S'#bigdata'
p534
aS'#hadoop'
p535
aS'#spark'
p536
asg80
g424
sg84
(lp537
V@MindisZ
p538
aV@cmfriend1979
p539
aV@alexandermikuta
p540
asg89
(lp541
V@TechCrunch
p542
aV@YouTube
p543
aV@ApacheSpark
p544
asg94
S'1-3'
p545
sg96
S'1-3'
p546
sa(dp547
g22
I1
sg23
I35
sg24
(g25
(g29
S'\xab\x1c&\x90\x15B\x16@'
p548
tp549
Rp550
g25
(g29
S'\x94nI\x1b=\x8e\xd7?'
p551
tp552
Rp553
tp554
sg39
F0.9109243697478991
sg40
(dp555
I0
(lp556
(S'data'
p557
F0.014419025869198238
tp558
a(S'graphs'
p559
F0.007646572429815122
tp560
a(S'time'
p561
F0.006859077843840341
tp562
a(S'2014'
p563
F0.004811591920305911
tp564
a(S'atigeo'
p565
F0.004732842461708433
tp566
asI1
(lp567
(S'neo4j'
p568
F0.03198837072251053
tp569
a(S'graphdb'
p570
F0.012344320905198733
tp571
a(S'great'
p572
F0.011637135111775507
tp573
a(S'big'
p574
F0.008336934742467127
tp575
a(S'bigdata'
p576
F0.007865477546851643
tp577
asI2
(lp578
(S'graph'
p579
F0.021940234206714548
tp580
a(S'visualization'
p581
F0.007449183409705652
tp582
a(S'nosql'
p583
F0.006430893353699622
tp584
a(S'key'
p585
F0.006117573336466997
tp586
a(S'good'
p587
F0.005960913327850684
tp588
assg75
(lp589
S'#bigdata'
p590
aS'#neo4j'
p591
aS'#graphdb'
p592
asg80
g424
sg84
(lp593
V@Linkurious
p594
aV@maxdemarzi
p595
aV@twarko
p596
asg89
(lp597
V@neo4j
p598
aV@maxdemarzi
p599
aV@peterneubauer
p600
asg94
S'1-2'
p601
sg96
S'1-2'
p602
sasS'root'
p603
(dp604
S'id_'
p605
I1447135560
sS'description'
p606
VWe put the power of large-scale machine learning in the hands of data scientists in every company
p607
sS'friends_count'
p608
I62
sS'followers_count'
p609
I516
sS'name_'
p610
VGraphLab, Inc.
p611
sS'screen_name'
p612
Vgraphlabteam
p613
ss.