(dp0
S'directed'
p1
I01
sS'links'
p2
(lp3
(dp4
S'source'
p5
I0
sS'target'
p6
I10
sS'value'
p7
I1
sa(dp8
g5
I1
sg6
I11
sg7
I1
sa(dp9
g5
I2
sg6
I9
sg7
I1
sa(dp10
g5
I3
sg6
I8
sg7
I1
sa(dp11
g5
I4
sg6
I9
sg7
I1
sa(dp12
g5
I5
sg6
I8
sg7
I1
sa(dp13
g5
I6
sg6
I11
sg7
I1
sa(dp14
g5
I7
sg6
I9
sg7
I1
sa(dp15
g5
I8
sg6
I12
sg7
I1
sa(dp16
g5
I9
sg6
I12
sg7
I1
sa(dp17
g5
I10
sg6
I12
sg7
I1
sa(dp18
g5
I11
sg6
I12
sg7
I1
sasS'multigraph'
p19
I00
sS'graph'
p20
(lp21
sS'nodes'
p22
(lp23
(dp24
S'group'
p25
I0
sS'comm_size'
p26
I24
sS'sentiment'
p27
(cnumpy.core.multiarray
scalar
p28
(cnumpy
dtype
p29
(S'f8'
p30
I0
I1
tp31
Rp32
(I3
S'<'
p33
NNNI-1
I-1
I0
tp34
bS'^1\xed\x97o\xf9\x15@'
p35
tp36
Rp37
g28
(g32
S'\n3\x8f\xd6\xbe-\xd9?'
p38
tp39
Rp40
tp41
sS'density'
p42
F0.9963768115942029
sS'topics'
p43
(dp44
I0
(lp45
(S'cardiology'
p46
F0.017514234820482803
tp47
a(S'system'
p48
F0.006908907445352123
tp49
a(S'life'
p50
F0.006497050071560641
tp51
a(S'booth'
p52
F0.0063940857281127705
tp53
a(S'constantcontact'
p54
F0.005570370980529805
tp55
asI1
(lp56
(S'heart'
p57
F0.024718963457593533
tp58
a(S'time'
p59
F0.009709927405275277
tp60
a(S'patients'
p61
F0.009607825119205085
tp62
a(S'di'
p63
F0.008791006830643548
tp64
a(S'dr'
p65
F0.008178393114222395
tp66
asI2
(lp67
(S'god'
p68
F0.009338781801036906
tp69
a(S'stories'
p70
F0.008933188671784489
tp71
a(S'today'
p72
F0.008527595542532072
tp73
a(S'daily'
p74
F0.007209417872461716
tp75
a(S'health'
p76
F0.007209417872461716
tp77
assS'hashtags'
p78
(lp79
S'#stroke'
p80
aS'#afib'
p81
aS'#healthcare'
p82
asS'modularity'
p83
g28
(g32
S'\xc4\x8f\xfb\x17\x80\x80\xc8?'
p84
tp85
Rp86
sS'most_connected'
p87
(lp88
V@stopafib
p89
aV@hansenmedical
p90
aV@DAICpublisher
p91
asS'mentioned'
p92
(lp93
V@drjohnm
p94
aV@EJSMD
p95
aV@American_Heart
p96
asS'id'
p97
S'0-4'
p98
sS'name'
p99
g98
sa(dp100
g25
I0
sg26
I3
sg27
(g28
(g32
S'\x9a+iJ\xb3L\x16@'
p101
tp102
Rp103
g28
(g32
S'H`\xb1{\xa5\x8f\xd9?'
p104
tp105
Rp106
tp107
sg42
F1.0
sg43
(dp108
I0
(lp109
(S'taurus'
p110
F0.050727550446177196
tp111
a(S'allyn'
p112
F0.024198086662914953
tp113
a(S'today'
p114
F0.023394163517967612
tp115
a(S'connex'
p116
F0.011335316343757503
tp117
a(S'care'
p118
F0.010531393198810161
tp119
asI1
(lp120
(S'day'
p121
F0.012539917439052837
tp122
a(S'welchallyn'
p123
F0.012539917439052837
tp124
a(S'good'
p125
F0.011761040579484336
tp126
a(S'blood'
p127
F0.011761040579484336
tp128
a(S'great'
p129
F0.010982163719915837
tp130
asI2
(lp131
(S'welchallyn'
p132
F0.061277075448908695
tp133
a(S'l7gkjq9is3'
p134
F0.033899669860697194
tp135
a(S'welch'
p136
F0.023431838312263382
tp137
a(S'free'
p138
F0.0073274820839036685
tp139
a(S'time'
p140
F0.0073274820839036685
tp141
assg78
(lp142
S'#welchallynonline'
p143
aS'#tbt'
p144
aS'#mobile'
p145
asg83
g86
sg87
(lp146
V@AngeloCutroneWA
p147
aV@meghanlharrison
p148
aV@RyanPeterWard
p149
asg92
(lp150
V@AllyndDave
p151
aV@EricTopol
p152
aV@meghanlharrison
p153
asg97
S'0-5'
p154
sg99
g154
sa(dp155
g25
I0
sg26
I3
sg27
(g28
(g32
S'\x87\r\xfa\xad\x0fQ\x16@'
p156
tp157
Rp158
g28
(g32
S'\x9b`\x12\xf2\xfa\xef\xd4?'
p159
tp160
Rp161
tp162
sg42
F1.0
sg43
(dp163
I0
(lp164
(S'pr'
p165
F0.032239313181899015
tp166
a(S'premoney'
p167
F0.02016633875871908
tp168
a(S'prtech'
p169
F0.01569486675013392
tp170
a(S'airpr'
p171
F0.01077624754069024
tp172
a(S'mohrdavidow'
p173
F0.010329100339831724
tp174
asI1
(lp175
(S'kbmdv'
p176
F0.01923763613640393
tp177
a(S'lppov'
p178
F0.01923763613640393
tp179
a(S'cc'
p180
F0.015666845206212945
tp181
a(S'raises'
p182
F0.010310658810926467
tp183
a(S'norwestvp'
p184
F0.009864309944652594
tp185
asI2
(lp186
(S'forbes'
p187
F0.01886709858168418
tp188
a(S'rebekahiliff'
p189
F0.017991595167220875
tp190
a(S'great'
p191
F0.012300822973209407
tp192
a(S'sfprsummit'
p193
F0.011863071265977755
tp194
a(S'data'
p195
F0.010549816144282801
tp196
assg78
(lp197
S'#startup'
p198
aS'#pr'
p199
aS'#ipo'
p200
asg83
g86
sg87
(lp201
V@MohrDavidow
p202
aV@NorwestVP
p203
aV@AirPR
p204
asg92
(lp205
V@Forbes
p206
aV@EntMagazine
p207
aV@Recode
p208
asg97
S'0-6'
p209
sg99
g209
sa(dp210
g25
I0
sg26
I3
sg27
(g28
(g32
S'\x89\xa7\\\x81V#\x16@'
p211
tp212
Rp213
g28
(g32
S'\xb36\xed<\xc6\xf3\xd4?'
p214
tp215
Rp216
tp217
sg42
F1.0
sg43
(dp218
I0
(lp219
(S'healthcare'
p220
F0.040134954663667316
tp221
a(S'healthit'
p222
F0.02607717719828472
tp223
a(S'job'
p224
F0.019048288465593418
tp225
a(S'health'
p226
F0.01693962184578603
tp227
a(S'technology'
p228
F0.013425177479440381
tp229
asI1
(lp230
(S'dri'
p231
F0.028155118767549347
tp232
a(S'interview'
p233
F0.02360173028762223
tp234
a(S'market'
p235
F0.018289443727707258
tp236
a(S'data'
p237
F0.014494953327767993
tp238
a(S'hiring'
p239
F0.012977157167792288
tp240
asI2
(lp241
(S'mhealth'
p242
F0.020931489920444784
tp243
a(S'top'
p244
F0.01706959141113763
tp245
a(S'barb'
p246
F0.0162972117092762
tp247
a(S'ehr'
p248
F0.013980072603691905
tp249
a(S'mobile'
p250
F0.01166293349810761
tp251
assg78
(lp252
S'#telehealth'
p253
aS'#mhealth'
p254
aS'#jobs'
p255
asg83
g86
sg87
(lp256
V@DRIHealthcareIT
p257
aV@Kasey_DRI
p258
aV@Norman_DRI
p259
asg92
(lp260
V@DRIHealthcareIT
p261
aV@JennHIStalk
p262
aV@Kasey_DRI
p263
asg97
S'0-7'
p264
sg99
g264
sa(dp265
g25
I0
sg26
I75
sg27
(g28
(g32
S'5\xaaJF#:\x16@'
p266
tp267
Rp268
g28
(g32
S'\x10\x9f\x0c\x92\x11E\xdb?'
p269
tp270
Rp271
tp272
sg42
F0.5950704225352113
sg43
(dp273
I0
(lp274
(S'time'
p275
F0.008466151823856636
tp276
a(S'good'
p277
F0.007274893197501262
tp278
a(S'make'
p279
F0.005549622083469342
tp280
a(S'video'
p281
F0.004522674991783675
tp282
a(S'check'
p283
F0.004481597108116249
tp284
asI1
(lp285
(S'day'
p286
F0.008793230316407746
tp287
a(S'love'
p288
F0.006667484261302201
tp289
a(S'brain'
p290
F0.006626604529473248
tp291
a(S'wirelessdesign'
p292
F0.006422205870328484
tp293
a(S'read'
p294
F0.006136047747525814
tp295
asI2
(lp296
(S'today'
p297
F0.007903552669670964
tp298
a(S'great'
p299
F0.007572687042473854
tp300
a(S'back'
p301
F0.006497373754083246
tp302
a(S'google'
p303
F0.004512179990900587
tp304
a(S'year'
p305
F0.004098597956904199
tp306
assg78
(lp307
S'#healthcare'
p308
aS'#mhealth'
p309
aS'#innovation'
p310
asg83
g86
sg87
(lp311
V@scotthao
p312
aV@LianaMiller
p313
aV@Dave_Bels
p314
asg92
(lp315
V@Forbes
p316
aV@WSJ
p317
aV@YouTube
p318
asg97
S'0-0'
p319
sg99
g319
sa(dp320
g25
I0
sg26
I13
sg27
(g28
(g32
S'\xe6\xa1\xc4\xc2+!\x16@'
p321
tp322
Rp323
g28
(g32
S'\xf7X\x9e\x08\xa5#\xd8?'
p324
tp325
Rp326
tp327
sg42
F1.0
sg43
(dp328
I0
(lp329
(S'healthcare'
p330
F0.027521574973032512
tp331
a(S'watchconference'
p332
F0.011744875943905594
tp333
a(S'wearabletech'
p334
F0.010800970873786888
tp335
a(S'impact'
p336
F0.009182847896440539
tp337
a(S'report'
p338
F0.009182847896440539
tp339
asI1
(lp340
(S'health'
p341
F0.036158115608503176
tp342
a(S'join'
p343
F0.008271287396778524
tp344
a(S'wearables'
p345
F0.007865168539326223
tp346
a(S'tech'
p347
F0.007865168539326223
tp348
a(S'patients'
p349
F0.007323676729389822
tp350
asI2
(lp351
(S'mhealth'
p352
F0.016664446516585354
tp353
a(S'care'
p354
F0.013201012388438118
tp355
a(S'data'
p356
F0.013067803383509378
tp357
a(S'post'
p358
F0.012934594378580638
tp359
a(S'digitalhealth'
p360
F0.012801385373651898
tp361
assg78
(lp362
S'#healthcare'
p363
aS'#healthit'
p364
aS'#health'
p365
asg83
g86
sg87
(lp366
V@jkvedar
p367
aV@dlschermd
p368
aV@BeckersHR
p369
asg92
(lp370
V@techreview
p371
aV@HealthcareWen
p372
aV@Forbes
p373
asg97
S'0-1'
p374
sg99
g374
sa(dp375
g25
I0
sg26
I29
sg27
(g28
(g32
S't\xf2mB\xbd%\x16@'
p376
tp377
Rp378
g28
(g32
S'\xf1\xd3yq8\xfe\xd8?'
p379
tp380
Rp381
tp382
sg42
F0.916256157635468
sg43
(dp383
I0
(lp384
(S'health'
p385
F0.027782095522328142
tp386
a(S'device'
p387
F0.014828861877080032
tp388
a(S'news'
p389
F0.007885928643227047
tp390
a(S'medtech'
p391
F0.007471425166579108
tp392
a(S'healthcare'
p393
F0.0071605475590931535
tp394
asI1
(lp395
(S'medical'
p396
F0.019072446445684562
tp397
a(S'healthcare'
p398
F0.007944276720487734
tp399
a(S'patients'
p400
F0.007429083677654548
tp401
a(S'qmed'
p402
F0.006913890634821362
tp403
a(S'tech'
p404
F0.006810852026254724
tp405
asI2
(lp406
(S'lsinw'
p407
F0.01522969634424849
tp408
a(S'data'
p409
F0.007411577071020312
tp410
a(S'technology'
p411
F0.007098852300091185
tp412
a(S'free'
p413
F0.0061606779873038045
tp414
a(S'2014'
p415
F0.006056436396994095
tp416
assg78
(lp417
S'#digitalhealth'
p418
aS'#mhealth'
p419
aS'#healthcare'
p420
asg83
g86
sg87
(lp421
V@medevise
p422
aV@bgibney
p423
aV@EvomedAustralia
p424
asg92
(lp425
V@Rock_Health
p426
aV@iRhythmTech
p427
aV@Paul_Sonnier
p428
asg97
S'0-2'
p429
sg99
g429
sa(dp430
g25
I0
sg26
I3
sg27
(g28
(g32
S'eNw\x07\xe7\x99\x16@'
p431
tp432
Rp433
g28
(g32
S'\x8a\xb6\xe5\xd5\xc9\xa5\xdc?'
p434
tp435
Rp436
tp437
sg42
F1.0
sg43
(dp438
I0
(lp439
(S'fotobabble'
p440
F0.054757511860832664
tp441
a(S'japan'
p442
F0.029059040590405785
tp443
a(S'tokyo'
p444
F0.0257643647865049
tp445
a(S'fotonotes'
p446
F0.01851607801792296
tp447
a(S'today'
p448
F0.01126779124934102
tp449
asI1
(lp450
(S'great'
p451
F0.02646182999458567
tp452
a(S'davebratva7th'
p453
F0.013603140227395703
tp454
a(S'talking'
p455
F0.012926367081754125
tp456
a(S'realestate'
p457
F0.00954250135354624
tp458
a(S'thebigastabile'
p459
F0.00954250135354624
tp460
asI2
(lp461
(S'mobile'
p462
F0.015241488519398185
tp463
a(S'investment'
p464
F0.01458168382158874
tp465
a(S'tcot'
p466
F0.013921879123779294
tp467
a(S'japanese'
p468
F0.013262074425969848
tp469
a(S'real'
p470
F0.011942465030350959
tp471
assg78
(lp472
S'#zoo'
p473
aS'#yoga'
p474
aS'#wlsquaw'
p475
asg83
g86
sg87
(lp476
V@Tex8Down
p477
aV@Fotobabble
p478
aV@TPREatZUU
p479
asg92
(lp480
V@DelMarPicks2014
p481
aV@fec322_factored
p482
aV@merica1776US
p483
asg97
S'0-3'
p484
sg99
g484
sa(dp485
g25
I1
sg26
I16
sg27
(g28
(g32
S'\xc6\x16\xda\xee\x8e!\x16@'
p486
tp487
Rp488
g28
(g32
S'\xf0\x06\xa6\xe5\xe5\x99\xd7?'
p489
tp490
Rp491
tp492
sg42
F1.0
sg43
(dp493
I0
(lp494
(S'health'
p495
F0.03497151792695376
tp496
a(S'mhealth'
p497
F0.017100413269296136
tp498
a(S'data'
p499
F0.013302803529543892
tp500
a(S'care'
p501
F0.01263263710488173
tp502
a(S'post'
p503
F0.010845526639115968
tp504
asI1
(lp505
(S'healthcare'
p506
F0.017991827203737182
tp507
a(S'mobile'
p508
F0.010402802101576786
tp509
a(S'reports'
p510
F0.007950963222417274
tp511
a(S'ubiome'
p512
F0.006199649737303338
tp513
a(S'time'
p514
F0.005732632807939622
tp515
asI2
(lp516
(S'healthcare'
p517
F0.013471803202599972
tp518
a(S'impact'
p519
F0.0102227895103278
tp520
a(S'great'
p521
F0.009294499883964321
tp522
a(S'watchconference'
p523
F0.009294499883964321
tp524
a(S'wearables'
p525
F0.008366210257600844
tp526
assg78
(lp527
S'#healthcare'
p528
aS'#healthit'
p529
aS'#health'
p530
asg83
g28
(g32
S'*6\xde52\x99\xc9?'
p531
tp532
Rp533
sg87
(lp534
V@jkvedar
p535
aV@dlschermd
p536
aV@BeckersHR
p537
asg92
(lp538
V@techreview
p539
aV@HIMSS
p540
aV@HealthcareWen
p541
asg97
S'1-1'
p542
sg99
S'1-1'
p543
sa(dp544
g25
I1
sg26
I81
sg27
(g28
(g32
S'\xcb\x93\xcc\xefm@\x16@'
p545
tp546
Rp547
g28
(g32
S"'\x9b\x93k\xf9\x02\xdb?"
p548
tp549
Rp550
tp551
sg42
F0.611055611055611
sg43
(dp552
I0
(lp553
(S'great'
p554
F0.005877023024606407
tp555
a(S'today'
p556
F0.005733768350027335
tp557
a(S'brainhealth'
p558
F0.005554700006803495
tp559
a(S'love'
p560
F0.00548307266951396
tp561
a(S'make'
p562
F0.004623544622039531
tp563
asI1
(lp564
(S'good'
p565
F0.007805091023607038
tp566
a(S'read'
p567
F0.006194687098516177
tp568
a(S'free'
p569
F0.0047632169428798565
tp570
a(S'great'
p571
F0.004369562650079869
tp572
a(S'video'
p573
F0.003653827572261708
tp574
asI2
(lp575
(S'day'
p576
F0.008075345763066129
tp577
a(S'health'
p578
F0.006844678995050672
tp579
a(S'back'
p580
F0.005975973041157408
tp581
a(S'world'
p582
F0.004998678843027487
tp583
a(S'time'
p584
F0.004890090598790829
tp585
assg78
(lp586
S'#healthcare'
p587
aS'#innovation'
p588
aS'#ff'
p589
asg83
g533
sg87
(lp590
V@scotthao
p591
aV@LianaMiller
p592
aV@Dave_Bels
p593
asg92
(lp594
V@Forbes
p595
aV@WSJ
p596
aV@FastCompany
p597
asg97
S'1-0'
p598
sg99
S'1-0'
p599
sa(dp600
g25
I1
sg26
I24
sg27
(g28
(g32
S'^1\xed\x97o\xf9\x15@'
p601
tp602
Rp603
g28
(g32
S'\n3\x8f\xd6\xbe-\xd9?'
p604
tp605
Rp606
tp607
sg42
F0.9963768115942029
sg43
(dp608
I0
(lp609
(S'heart'
p610
F0.02578417090290615
tp611
a(S'health'
p612
F0.011318140605740313
tp613
a(S'2014'
p614
F0.009076924644207578
tp615
a(S'today'
p616
F0.008567557380222865
tp617
a(S'stories'
p618
F0.008465683927425922
tp619
asI1
(lp620
(S'cardiology'
p621
F0.017172568573489814
tp622
a(S'dr'
p623
F0.01209493150267674
tp624
a(S'time'
p625
F0.009759218450102726
tp626
a(S'great'
p627
F0.007321952656112451
tp628
a(S'system'
p629
F0.006814188949031144
tp630
asI2
(lp631
(S'di'
p632
F0.011962782454586499
tp633
a(S'patients'
p634
F0.009489855848987223
tp635
a(S'daily'
p636
F0.00897466280615404
tp637
a(S'obamacare'
p638
F0.00835643115475422
tp639
a(S'stroke'
p640
F0.007429083677654492
tp641
assg78
(lp642
S'#stroke'
p643
aS'#afib'
p644
aS'#healthcare'
p645
asg83
g533
sg87
(lp646
V@stopafib
p647
aV@hansenmedical
p648
aV@DAICpublisher
p649
asg92
(lp650
V@drjohnm
p651
aV@EJSMD
p652
aV@American_Heart
p653
asg97
S'1-3'
p654
sg99
S'1-3'
p655
sa(dp656
g25
I1
sg26
I32
sg27
(g28
(g32
S'\xe2\x08\xea\x91{*\x16@'
p657
tp658
Rp659
g28
(g32
S'\x03\xad\xaf\xcfV\x13\xd9?'
p660
tp661
Rp662
tp663
sg42
F0.9133064516129032
sg43
(dp664
I0
(lp665
(S'healthcare'
p666
F0.014265348441088207
tp667
a(S'today'
p668
F0.00787787898985468
tp669
a(S'patient'
p670
F0.007137302821595721
tp671
a(S'patients'
p672
F0.006952158779530981
tp673
a(S'2014'
p674
F0.005656150485077803
tp675
asI1
(lp676
(S'medical'
p677
F0.017073660388379184
tp678
a(S'device'
p679
F0.013332238282962046
tp680
a(S'digitalhealth'
p681
F0.012602204701417237
tp682
a(S'great'
p683
F0.007218207037524283
tp684
a(S'free'
p685
F0.006670681851365677
tp686
asI2
(lp687
(S'health'
p688
F0.029761236480672724
tp689
a(S'lsinw'
p690
F0.012172074398414086
tp691
a(S'news'
p692
F0.007681224505071456
tp693
a(S'fda'
p694
F0.005716477676734056
tp695
a(S'booth'
p696
F0.005155121440066228
tp697
assg78
(lp698
S'#digitalhealth'
p699
aS'#mhealth'
p700
aS'#healthcare'
p701
asg83
g533
sg87
(lp702
V@medevise
p703
aV@bgibney
p704
aV@EvomedAustralia
p705
asg92
(lp706
V@Rock_Health
p707
aV@EricTopol
p708
aV@iRhythmTech
p709
asg97
S'1-2'
p710
sg99
S'1-2'
p711
sa(dp712
g25
I2
sg26
I153
sg27
(g28
(g32
S'\xb0u5\x85\x8a,\x16@'
p713
tp714
Rp715
g28
(g32
S'x\xdc_a\xf0\xf0\xd9?'
p716
tp717
Rp718
tp719
sg42
F0.7044295302013422
sg43
(dp720
I0
(lp721
(S'medical'
p722
F0.006443312727542915
tp723
a(S'good'
p724
F0.006318752691384947
tp725
a(S'patients'
p726
F0.005802718255873363
tp727
a(S'mhealth'
p728
F0.004699472221331356
tp729
a(S'great'
p730
F0.004485940730774838
tp731
asI1
(lp732
(S'data'
p733
F0.006884771051337439
tp734
a(S'heart'
p735
F0.006777224510571949
tp736
a(S'healthcare'
p737
F0.006149869689439926
tp738
a(S'2014'
p739
F0.004823462353332218
tp740
a(S'device'
p741
F0.004375351766809344
tp742
asI2
(lp743
(S'health'
p744
F0.017666526069883004
tp745
a(S'time'
p746
F0.007662524469245245
tp747
a(S'today'
p748
F0.00685138920432867
tp749
a(S'day'
p750
F0.006454834185925011
tp751
a(S'care'
p752
F0.006454834185925011
tp753
assg78
(lp754
S'#healthcare'
p755
aS'#digitalhealth'
p756
aS'#mhealth'
p757
asg83
g28
(g32
S'\x00\x00\x00\x00\x00\x00\x00\x00'
p758
tp759
Rp760
sg87
(lp761
V@dlschermd
p762
aV@BeckersHR
p763
aV@jkvedar
p764
asg92
(lp765
V@Forbes
p766
aV@WSJ
p767
aV@nytimes
p768
asg97
S'2-0'
p769
sg99
S'2-0'
p770
sasS'root'
p771
(dp772
S'id_'
p773
I48001451
sS'description'
p774
V#ZioPatch - Simply a more efficient way to diagnose arrhythmias.
p775
sS'friends_count'
p776
I142
sS'followers_count'
p777
I171
sS'name_'
p778
ViRhythm Technologies
p779
sS'screen_name'
p780
ViRhythmTech
p781
ss.