(dp0
S'directed'
p1
I01
sS'links'
p2
(lp3
(dp4
S'source'
p5
I1
sS'target'
p6
I0
sS'value'
p7
I1
sa(dp8
g5
I2
sg6
I0
sg7
I1
sa(dp9
g5
I3
sg6
I0
sg7
I1
sasS'multigraph'
p10
I00
sS'graph'
p11
(lp12
sS'nodes'
p13
(lp14
(dp15
S'group'
p16
I1
sS'comm_size'
p17
I152
sS'sentiment'
p18
(cnumpy.core.multiarray
scalar
p19
(cnumpy
dtype
p20
(S'f8'
p21
I0
I1
tp22
Rp23
(I3
S'<'
p24
NNNI-1
I-1
I0
tp25
bS'\xe7\xa6\xc4N\x9d2\x16@'
p26
tp27
Rp28
g19
(g23
S'\x00\xfb\x1dm\xd5 \xd8?'
p29
tp30
Rp31
tp32
sS'density'
p33
F0.9098117811084001
sS'topics'
p34
(dp35
I0
(lp36
(S'digitalhealth'
p37
F0.007410868444298654
tp38
a(S'today'
p39
F0.007244984427638359
tp40
a(S'time'
p41
F0.00648468268461201
tp42
a(S'big'
p43
F0.006014677970741175
tp44
a(S'health'
p45
F0.005890264958245955
tp46
asI1
(lp47
(S'data'
p48
F0.019417325905528332
tp49
a(S'great'
p50
F0.006510787481219348
tp51
a(S'good'
p52
F0.005767258637210244
tp53
a(S'world'
p54
F0.005388479792149002
tp55
a(S'week'
p56
F0.005079845177654656
tp57
asI2
(lp58
(S'health'
p59
F0.01766832624569407
tp60
a(S'2healthguru'
p61
F0.012382156673720411
tp62
a(S'healthcare'
p63
F0.01156140929280871
tp64
a(S'care'
p65
F0.008626194083107545
tp66
a(S'live'
p67
F0.006163951940372446
tp68
assS'hashtags'
p69
(lp70
S'#healthcare'
p71
aS'#digitalhealth'
p72
aS'#bigdata'
p73
asS'modularity'
p74
g19
(g23
S'\x00\x00\x00\x00\x00\x00\x00\x00'
p75
tp76
Rp77
sS'most_connected'
p78
(lp79
V@2healthguru
p80
aV@Cascadia
p81
aV@HealthGrid
p82
asS'mentioned'
p83
(lp84
V@TechCrunch
p85
aV@Forbes
p86
aV@2healthguru
p87
asS'id'
p88
S'1-0'
p89
sS'name'
p90
S'1-0'
p91
sa(dp92
g16
I0
sg17
I29
sg18
(g19
(g23
S'\xcf\n\x99p\xf4\xc8\x15@'
p93
tp94
Rp95
g19
(g23
S'\x9f\xd4\xec\x16\xe0\xb3\xd7?'
p96
tp97
Rp98
tp99
sg33
F1.0
sg34
(dp100
I0
(lp101
(S'2healthguru'
p102
F0.061670424175467385
tp103
a(S'cancer'
p104
F0.018222673455067895
tp105
a(S'asco'
p106
F0.007472714513938125
tp107
a(S'phychat'
p108
F0.0072487570359979206
tp109
a(S'philmarshallmd'
p110
F0.0065768846021773105
tp111
asI1
(lp112
(S'health'
p113
F0.020122033289965015
tp114
a(S'care'
p115
F0.017953549583502787
tp116
a(S'healthcare'
p117
F0.011223772563447598
tp118
a(S'wordpressdotcom'
p119
F0.00972826655899089
tp120
a(S'patients'
p121
F0.008157985254311346
tp122
asI2
(lp123
(S'aco'
p124
F0.015300869143879181
tp125
a(S'live'
p126
F0.014695193967476245
tp127
a(S'cc'
p128
F0.01355955301172074
tp129
a(S'fertility'
p130
F0.012802459041217068
tp131
a(S'chemosabe1'
p132
F0.012348202658914866
tp133
assg69
(lp134
S'#digitalhealth'
p135
aS'#hcsm'
p136
aS'#healthit'
p137
asg74
g19
(g23
S'\xf9\x82SEW/\xd1?'
p138
tp139
Rp140
sg78
(lp141
V@chemosabe1
p142
aV@PacificOncology
p143
aV@PhyChat
p144
asg83
(lp145
V@2healthguru
p146
aV@philmarshallmd
p147
aV@chemosabe1
p148
asg88
S'0-0'
p149
sg90
g149
sa(dp150
g16
I0
sg17
I95
sg18
(g19
(g23
S'\x12\x92\x8b\xe3\xacH\x16@'
p151
tp152
Rp153
g19
(g23
S'u\x9f_\x84&\xa6\xd8?'
p154
tp155
Rp156
tp157
sg33
F0.896976483762598
sg34
(dp158
I0
(lp159
(S'data'
p160
F0.02055075371296059
tp161
a(S'great'
p162
F0.00998695741816854
tp163
a(S'google'
p164
F0.007763000303475476
tp165
a(S'bigdata'
p166
F0.0062108635671792745
tp167
a(S'tech'
p168
F0.005029386349998584
tp169
asI1
(lp170
(S'health'
p171
F0.013289950154017686
tp172
a(S'good'
p173
F0.005271148722189939
tp174
a(S'life'
p175
F0.004439226959810115
tp176
a(S'future'
p177
F0.004369900146278463
tp178
a(S'strikes'
p179
F0.003815285638025247
tp180
asI2
(lp181
(S'big'
p182
F0.0071774681314417605
tp183
a(S'day'
p184
F0.006993489454570456
tp185
a(S'time'
p186
F0.006234577412476326
tp187
a(S'make'
p188
F0.005176700020466325
tp189
a(S'healthcare'
p190
F0.004233809301500891
tp191
assg69
(lp192
S'#bigdata'
p193
aS'#healthcare'
p194
aS'#digitalhealth'
p195
asg74
g140
sg78
(lp196
V@EzraPenland
p197
aV@hackingdata
p198
aV@strataconf
p199
asg83
(lp200
V@TechCrunch
p201
aV@Forbes
p202
aV@FastCompany
p203
asg88
S'0-1'
p204
sg90
g204
sa(dp205
g16
I0
sg17
I28
sg18
(g19
(g23
S'\xfc\x8c\xabigC\x16@'
p206
tp207
Rp208
g19
(g23
S'K\xbe`\x84\xdc\x1a\xd6?'
p209
tp210
Rp211
tp212
sg33
F1.0
sg34
(dp213
I0
(lp214
(S'healthcare'
p215
F0.02482696451615032
tp216
a(S'health'
p217
F0.018652638598182072
tp218
a(S'big'
p219
F0.007847568241737641
tp220
a(S'digitalhealth'
p221
F0.006921419354042404
tp222
a(S'healthit'
p223
F0.006797932835683039
tp224
asI1
(lp225
(S'health'
p226
F0.033254257649208516
tp227
a(S'data'
p228
F0.023607428665037462
tp229
a(S'digitalhealth'
p230
F0.014142615322077183
tp231
a(S'digital'
p232
F0.011715740105933523
tp233
a(S'stories'
p234
F0.010987677541090424
tp235
asI2
(lp236
(S'mhealth'
p237
F0.015409540291254142
tp238
a(S'app'
p239
F0.014979963301852394
tp240
a(S'patient'
p241
F0.01050008898380559
tp242
a(S'care'
p243
F0.010009143853060735
tp244
a(S'daily'
p245
F0.00890451730888481
tp246
assg69
(lp247
S'#mhealth'
p248
aS'#healthcare'
p249
aS'#digitalhealth'
p250
asg74
g140
sg78
(lp251
V@Cascadia
p252
aV@2healthguru
p253
aV@HealthGrid
p254
asg83
(lp255
V@2healthguru
p256
aV@MobiHealthNews
p257
aV@Paul_Sonnier
p258
asg88
S'0-2'
p259
sg90
g259
sasS'root'
p260
(dp261
S'id_'
p262
I1869075786
sS'description'
p263
Vhelping deliver optimized care using medical science-based graph analytics
p264
sS'friends_count'
p265
I45
sS'followers_count'
p266
I161
sS'name_'
p267
VLumiata
p268
sS'screen_name'
p269
VLumiata
p270
ss.