(dp0
S'directed'
p1
I01
sS'links'
p2
(lp3
(dp4
S'source'
p5
I0
sS'target'
p6
I8
sS'value'
p7
I1
sa(dp8
g5
I1
sg6
I9
sg7
I1
sa(dp9
g5
I2
sg6
I8
sg7
I1
sa(dp10
g5
I3
sg6
I8
sg7
I1
sa(dp11
g5
I4
sg6
I7
sg7
I1
sa(dp12
g5
I5
sg6
I7
sg7
I1
sa(dp13
g5
I6
sg6
I10
sg7
I1
sa(dp14
g5
I7
sg6
I11
sg7
I1
sa(dp15
g5
I8
sg6
I11
sg7
I1
sa(dp16
g5
I9
sg6
I11
sg7
I1
sa(dp17
g5
I10
sg6
I11
sg7
I1
sasS'multigraph'
p18
I00
sS'graph'
p19
(lp20
sS'nodes'
p21
(lp22
(dp23
S'group'
p24
I0
sS'comm_size'
p25
I50
sS'sentiment'
p26
(cnumpy.core.multiarray
scalar
p27
(cnumpy
dtype
p28
(S'f8'
p29
I0
I1
tp30
Rp31
(I3
S'<'
p32
NNNI-1
I-1
I0
tp33
bS'\xf9\t\xac\xefz\xa2\x16@'
p34
tp35
Rp36
g27
(g31
S'\\\x07\x97\xf0ms\xdc?'
p37
tp38
Rp39
tp40
sS'density'
p41
F0.9387755102040817
sS'topics'
p42
(dp43
I0
(lp44
(S'day'
p45
F0.010625173917075454
tp46
a(S'watches'
p47
F0.0090483257582777
tp48
a(S'black'
p49
F0.00821352379185536
tp50
a(S'time'
p51
F0.007842500695667652
tp52
a(S'free'
p53
F0.0074714775994799455
tp54
asI1
(lp55
(S'great'
p56
F0.01303393308833972
tp57
a(S'home'
p58
F0.012556674461890079
tp59
a(S'nathansreality'
p60
F0.008738605450292942
tp61
a(S'post'
p62
F0.008070443373263443
tp63
a(S'today'
p64
F0.006925022669784303
tp65
asI2
(lp66
(S'camera'
p67
F0.01149628075529194
tp68
a(S'facebook'
p69
F0.009493610528322791
tp70
a(S'sponsored'
p71
F0.009159832157161268
tp72
a(S'make'
p73
F0.008635323288193157
tp74
a(S'follow'
p75
F0.00858764066374151
tp76
assS'hashtags'
p77
(lp78
S'#moving'
p79
aS'#ff'
p80
aS'#socialmedia'
p81
asS'modularity'
p82
g27
(g31
S'|(.\xd0\x8a\xc0\xce?'
p83
tp84
Rp85
sS'most_connected'
p86
(lp87
V@HostingPromos
p88
aV@markbeck
p89
aV@moedawg36
p90
asS'mentioned'
p91
(lp92
V@YouTube
p93
aV@smexaminer
p94
aV@Namecheap
p95
asS'id'
p96
S'0-4'
p97
sS'name'
p98
g97
sa(dp99
g24
I0
sg25
I8
sg26
(g27
(g31
S'\x15Y\xf0\x90]\x10\x17@'
p100
tp101
Rp102
g27
(g31
S'\xd4\xc4\xecN\x05\xcd\xd7?'
p103
tp104
Rp105
tp106
sg41
F1.0
sg42
(dp107
I0
(lp108
(S'move'
p109
F0.040917056074765534
tp110
a(S'moving'
p111
F0.033615654205606804
tp112
a(S'happy'
p113
F0.024269859813083623
tp114
a(S'day'
p115
F0.016092289719625844
tp116
a(S'office'
p117
F0.012003504672896957
tp118
asI1
(lp119
(S'photo'
p120
F0.034113229347197585
tp121
a(S'movers'
p122
F0.013604852686308268
tp123
a(S'st'
p124
F0.013604852686308268
tp125
a(S'items'
p126
F0.013316002310802783
tp127
a(S'louis'
p128
F0.013316002310802783
tp129
asI2
(lp130
(S'truck'
p131
F0.044564898915908854
tp132
a(S'facebook'
p133
F0.04280691473776649
tp134
a(S'men'
p135
F0.034016993847054686
tp136
a(S'posted'
p137
F0.03284500439495978
tp138
a(S'great'
p139
F0.01819513624377344
tp140
assg77
(lp141
S'#tmtannualmeeting'
p142
aS'#moving'
p143
aS'#packing'
p144
asg82
g85
sg86
(lp145
V@TwoMen_LR
p146
aV@NChicagoMovers
p147
aV@TwoMenAndATruck
p148
asg91
(lp149
V@We_Move_Forward
p150
aV@TwoMenAndATruck
p151
aV@FranchisingMel
p152
asg96
S'0-5'
p153
sg98
g153
sa(dp154
g24
I0
sg25
I2
sg26
(g27
(g31
S'\x1e\xa2\xc8\x05\xd2\xed\x14@'
p155
tp156
Rp157
g27
(g31
S'\t[\xea\xdf\x832\xd8?'
p158
tp159
Rp160
tp161
sg41
F1.0
sg42
(dp162
I0
(lp163
(S'bad'
p164
F0.15990207447493915
tp165
a(S'consolidation'
p166
F0.04393763690246113
tp167
a(S'approval'
p168
F0.02847571189279739
tp169
a(S'mortgage'
p170
F0.019456255637160205
tp171
a(S'auto'
p172
F0.01687926813554958
tp173
asI1
(lp174
(S'loan'
p175
F0.22554201272785945
tp176
a(S'credit'
p177
F0.15543091360155212
tp178
a(S'home'
p179
F0.06374716859022714
tp180
a(S'000'
p181
F0.03462409664545332
tp182
a(S'debt'
p183
F0.021680509114442734
tp184
asI2
(lp185
(S'loans'
p186
F0.134324749123444
tp187
a(S'personal'
p188
F0.09321726514327212
tp189
a(S'unsecured'
p190
F0.04606456293072203
tp191
a(S'student'
p192
F0.030346995526538658
tp193
a(S'payday'
p194
F0.019465602708257864
tp195
assg77
(lp196
sg82
g85
sg86
(lp197
V@Shantewi28
p198
aV@Blossommr59
p199
asg91
(lp200
sg96
S'0-6'
p201
sg98
g201
sa(dp202
g24
I0
sg25
I368
sg26
(g27
(g31
S'\x13\xa92\r\xe5\xab\x16@'
p203
tp204
Rp205
g27
(g31
S'\x8d)\xb7\x90\x87F\xda?'
p206
tp207
Rp208
tp209
sg41
F0.9250385025470915
sg42
(dp210
I0
(lp211
(S'real'
p212
F0.015126461994435547
tp213
a(S'moving'
p214
F0.010954318517348485
tp215
a(S'house'
p216
F0.009035690664172997
tp217
a(S'home'
p218
F0.008798478493234937
tp219
a(S'time'
p220
F0.008798478493234937
tp221
asI1
(lp222
(S'estate'
p223
F0.01534583252245192
tp224
a(S'today'
p225
F0.01208359176908182
tp226
a(S'day'
p227
F0.011026513756723698
tp228
a(S'check'
p229
F0.00982942541160291
tp230
a(S'sale'
p231
F0.008751345849330388
tp232
asI2
(lp233
(S'home'
p234
F0.02022595418989343
tp235
a(S'great'
p236
F0.013568651847024642
tp237
a(S'facebook'
p238
F0.008410298128924408
tp239
a(S'market'
p240
F0.00783323809497595
tp241
a(S'call'
p242
F0.007122469028771144
tp243
assg77
(lp244
S'#realestate'
p245
aS'#home'
p246
aS'#moving'
p247
asg82
g85
sg86
(lp248
V@BHGRealEstate
p249
aV@PardeeHomes
p250
aV@FlipComp
p251
asg91
(lp252
V@YouTube
p253
aV@ShareThis
p254
aV@Forbes
p255
asg96
S'0-0'
p256
sg98
g256
sa(dp257
g24
I0
sg25
I42
sg26
(g27
(g31
S'\xbb<\xa4d\x9e\x98\x16@'
p258
tp259
Rp260
g27
(g31
S'?\xe7\xf1C\xf1`\xd5?'
p261
tp262
Rp263
tp264
sg41
F0.9965156794425087
sg42
(dp265
I0
(lp266
(S'removals'
p267
F0.038658361284142066
tp268
a(S'call'
p269
F0.01872544321993396
tp270
a(S'move'
p271
F0.010420060693180582
tp272
a(S'movers'
p273
F0.008950646861524216
tp274
a(S'time'
p275
F0.00882287174572801
tp276
asI1
(lp277
(S'moving'
p278
F0.02613720265802225
tp279
a(S'house'
p280
F0.020551507174730834
tp281
a(S'london'
p282
F0.02003788000385346
tp283
a(S'good'
p284
F0.015736252447755474
tp285
a(S'day'
p286
F0.0129755064042896
tp287
asI2
(lp288
(S'uk'
p289
F0.01636747281285609
tp290
a(S'great'
p291
F0.015653303035222544
tp292
a(S'free'
p293
F0.01123843531894244
tp294
a(S'home'
p295
F0.009031001460802388
tp296
a(S'morning'
p297
F0.008901152410323562
tp298
assg77
(lp299
S'#removals'
p300
aS'#moving'
p301
aS'#storage'
p302
asg82
g85
sg86
(lp303
V@JensonsRemovals
p304
aV@SquabGroup
p305
aV@Acorn_Removals
p306
asg91
(lp307
V@The_Mover_Mag
p308
aV@BritanniaMovers
p309
aV@zoopla
p310
asg96
S'0-1'
p311
sg98
g311
sa(dp312
g24
I0
sg25
I319
sg26
(g27
(g31
S'\xed\x96)u\x04\x9b\x16@'
p313
tp314
Rp315
g27
(g31
S'\xa0{\xcb \x93\xea\xd7?'
p316
tp317
Rp318
tp319
sg41
F0.9704264505825989
sg42
(dp320
I0
(lp321
(S'today'
p322
F0.013023206350736291
tp323
a(S'home'
p324
F0.013023206350736291
tp325
a(S'movers'
p326
F0.012574885261086416
tp327
a(S'good'
p328
F0.00985368050763019
tp329
a(S'day'
p330
F0.006559041802296215
tp331
asI1
(lp332
(S'moving'
p333
F0.08249194172192485
tp334
a(S'relocation'
p335
F0.016394569407892964
tp336
a(S'check'
p337
F0.011890961392083557
tp338
a(S'day'
p339
F0.008474784924510592
tp340
a(S'time'
p341
F0.008392714618983313
tp342
asI2
(lp343
(S'move'
p344
F0.02424624520169805
tp345
a(S'movers'
p346
F0.012237516097915232
tp347
a(S'great'
p348
F0.010757129665293729
tp349
a(S'happy'
p350
F0.010260216736861338
tp351
a(S'storage'
p352
F0.01015669321010459
tp353
assg77
(lp354
S'#moving'
p355
aS'#relocation'
p356
aS'#movers'
p357
asg82
g85
sg86
(lp358
V@Orbit_Moving
p359
aV@The_Mover_Mag
p360
aV@MoversCom
p361
asg91
(lp362
V@YouTube
p363
aV@Atlas_Van_Lines
p364
aV@MoveForHunger
p365
asg96
S'0-2'
p366
sg98
g366
sa(dp367
g24
I0
sg25
I53
sg26
(g27
(g31
S'\xa8\xbe\x88\xbd\xd6\xa8\x16@'
p368
tp369
Rp370
g27
(g31
S'\xee{N\x108\xdf\xd6?'
p371
tp372
Rp373
tp374
sg41
F0.997822931785196
sg42
(dp375
I0
(lp376
(S'selfstorage'
p377
F0.029659646124872065
tp378
a(S'check'
p379
F0.01485263498436119
tp380
a(S'unit'
p381
F0.013732776998944402
tp382
a(S'make'
p383
F0.009211868835595141
tp384
a(S'time'
p385
F0.007303962638218389
tp386
asI1
(lp387
(S'moving'
p388
F0.03524724067301323
tp389
a(S'tips'
p390
F0.013935534160921947
tp391
a(S'home'
p392
F0.010162449934073099
tp393
a(S'store'
p394
F0.00850395137282086
tp395
a(S'facility'
p396
F0.00829663905266433
tp397
asI2
(lp398
(S'storage'
p399
F0.11221792630168989
tp400
a(S'great'
p401
F0.024425181208491152
tp402
a(S'move'
p403
F0.01925365905713863
tp404
a(S'today'
p405
F0.013343348027021465
tp406
a(S'happy'
p407
F0.009033746234227697
tp408
assg77
(lp409
S'#selfstorage'
p410
aS'#storage'
p411
aS'#moving'
p412
asg82
g85
sg86
(lp413
V@selfstoragefind
p414
aV@SelfStorage_ISS
p415
aV@UHaul_Affiliate
p416
asg91
(lp417
V@SpareFoot
p418
aV@SelfStorage_ISS
p419
aV@SelfStorageInc
p420
asg96
S'0-3'
p421
sg98
g421
sa(dp422
g24
I1
sg25
I361
sg26
(g27
(g31
S'\x01\xfc\x00F\xb1\x9a\x16@'
p423
tp424
Rp425
g27
(g31
S'\x15\xb8\xa5+\xae\x96\xd7?'
p426
tp427
Rp428
tp429
sg41
F0.9669590643274854
sg42
(dp430
I0
(lp431
(S'move'
p432
F0.026896693166686986
tp433
a(S'great'
p434
F0.01594947548705819
tp435
a(S'relocation'
p436
F0.012837119433523626
tp437
a(S'happy'
p438
F0.01093912195579012
tp439
a(S'today'
p440
F0.008627343037413294
tp441
asI1
(lp442
(S'movers'
p443
F0.02243023919270169
tp444
a(S'removals'
p445
F0.006994414127272434
tp446
a(S'house'
p447
F0.00660985996863196
tp448
a(S'service'
p449
F0.006296850769738551
tp450
a(S'call'
p451
F0.006261078289865019
tp452
asI2
(lp453
(S'moving'
p454
F0.07379813998816293
tp455
a(S'home'
p456
F0.012984567719468432
tp457
a(S'storage'
p458
F0.01111063519174637
tp459
a(S'good'
p460
F0.010834007056701685
tp461
a(S'tips'
p462
F0.010691231245065718
tp463
assg77
(lp464
S'#moving'
p465
aS'#relocation'
p466
aS'#movers'
p467
asg82
g27
(g31
S'N\xddV\xa3\xf8\x06\xd0?'
p468
tp469
Rp470
sg86
(lp471
V@The_Mover_Mag
p472
aV@Orbit_Moving
p473
aV@MoversCom
p474
asg91
(lp475
V@YouTube
p476
aV@ShareThis
p477
aV@Atlas_Van_Lines
p478
asg96
S'1-1'
p479
sg98
S'1-1'
p480
sa(dp481
g24
I1
sg25
I420
sg26
(g27
(g31
S'w\x8a\xc3\xf4(\xa8\x16@'
p482
tp483
Rp484
g27
(g31
S'\xb9\xec\x1fU\x02\xa0\xda?'
p485
tp486
Rp487
tp488
sg41
F0.886600750085237
sg42
(dp489
I0
(lp490
(S'home'
p491
F0.028745691282710168
tp492
a(S'house'
p493
F0.008490152373302735
tp494
a(S'business'
p495
F0.007771525316384492
tp496
a(S'sale'
p497
F0.007704534658536181
tp498
a(S'youtube'
p499
F0.007674084359514222
tp500
asI1
(lp501
(S'moving'
p502
F0.013138379228196535
tp503
a(S'today'
p504
F0.010956875696962196
tp505
a(S'day'
p506
F0.01092031418526553
tp507
a(S'great'
p508
F0.008440224975175093
tp509
a(S'move'
p510
F0.0072336950891851515
tp511
asI2
(lp512
(S'estate'
p513
F0.013488016629993126
tp514
a(S'real'
p515
F0.008492907801424891
tp516
a(S'check'
p517
F0.008468451944247078
tp518
a(S'good'
p519
F0.007282342871123164
tp520
a(S'video'
p521
F0.00611457569088261
tp522
assg77
(lp523
S'#realestate'
p524
aS'#moving'
p525
aS'#home'
p526
asg82
g470
sg86
(lp527
V@markbeck
p528
aV@HostingPromos
p529
aV@moedawg36
p530
asg91
(lp531
V@YouTube
p532
aV@ShareThis
p533
aV@Forbes
p534
asg96
S'1-0'
p535
sg98
S'1-0'
p536
sa(dp537
g24
I1
sg25
I8
sg26
(g27
(g31
S'\x15Y\xf0\x90]\x10\x17@'
p538
tp539
Rp540
g27
(g31
S'\xd4\xc4\xecN\x05\xcd\xd7?'
p541
tp542
Rp543
tp544
sg41
F1.0
sg42
(dp545
I0
(lp546
(S'photo'
p547
F0.03465522343888657
tp548
a(S'facebook'
p549
F0.030807931340632724
tp550
a(S'happy'
p551
F0.02429712932820314
tp552
a(S'move'
p553
F0.013939035217519706
tp554
a(S'items'
p555
F0.01364308967150018
tp556
asI1
(lp557
(S'moving'
p558
F0.049616292798110036
tp559
a(S'posted'
p560
F0.035153482880754934
tp561
a(S'today'
p562
F0.019214876033057483
tp563
a(S'st'
p564
F0.013311688311688058
tp565
a(S'facebook'
p566
F0.012426210153482645
tp567
asI2
(lp568
(S'men'
p569
F0.043346545866364175
tp570
a(S'truck'
p571
F0.04306342015854991
tp572
a(S'move'
p573
F0.026359003397508192
tp574
a(S'day'
p575
F0.024093997734994065
tp576
a(S'great'
p577
F0.014750849377123275
tp578
assg77
(lp579
S'#tmtannualmeeting'
p580
aS'#moving'
p581
aS'#packing'
p582
asg82
g470
sg86
(lp583
V@TwoMen_LR
p584
aV@NChicagoMovers
p585
aV@TwoMenAndATruck
p586
asg91
(lp587
V@We_Move_Forward
p588
aV@TwoMenAndATruck
p589
aV@FranchisingMel
p590
asg96
S'1-3'
p591
sg98
S'1-3'
p592
sa(dp593
g24
I1
sg25
I53
sg26
(g27
(g31
S'\xa8\xbe\x88\xbd\xd6\xa8\x16@'
p594
tp595
Rp596
g27
(g31
S'\xee{N\x108\xdf\xd6?'
p597
tp598
Rp599
tp600
sg41
F0.997822931785196
sg42
(dp601
I0
(lp602
(S'day'
p603
F0.012603312726782142
tp604
a(S'moving'
p605
F0.011385398467946147
tp606
a(S'free'
p607
F0.009957498992069462
tp608
a(S'check'
p609
F0.009327543340947396
tp610
a(S'store'
p611
F0.008403608385968365
tp612
asI1
(lp613
(S'storage'
p614
F0.052849500451906783
tp615
a(S'selfstorage'
p616
F0.028950989732186207
tp617
a(S'move'
p618
F0.019627720643913615
tp619
a(S'great'
p620
F0.017022090855051405
tp621
a(S'make'
p622
F0.010752294175601713
tp623
asI2
(lp624
(S'storage'
p625
F0.0592959305014109
tp626
a(S'moving'
p627
F0.023580465085548202
tp628
a(S'tips'
p629
F0.017717348219591547
tp630
a(S'unit'
p631
F0.014042577789520125
tp632
a(S'today'
p633
F0.013175497126244846
tp634
assg77
(lp635
S'#selfstorage'
p636
aS'#storage'
p637
aS'#moving'
p638
asg82
g470
sg86
(lp639
V@selfstoragefind
p640
aV@SelfStorage_ISS
p641
aV@UHaul_Affiliate
p642
asg91
(lp643
V@SpareFoot
p644
aV@SelfStorage_ISS
p645
aV@SelfStorageInc
p646
asg96
S'1-2'
p647
sg98
S'1-2'
p648
sa(dp649
g24
I2
sg25
I842
sg26
(g27
(g31
S'\x9dBCj[\xa4\x16@'
p650
tp651
Rp652
g27
(g31
S'\x0fU\xd8Jo=\xd9?'
p653
tp654
Rp655
tp656
sg41
F0.8479781732526316
sg42
(dp657
I0
(lp658
(S'moving'
p659
F0.03873321702592684
tp660
a(S'today'
p661
F0.012956778787227792
tp662
a(S'movers'
p663
F0.01113628663531451
tp664
a(S'posted'
p665
F0.006353750579922575
tp666
a(S'photo'
p667
F0.0062971722132269155
tp668
asI1
(lp669
(S'move'
p670
F0.016715021738085752
tp671
a(S'check'
p672
F0.010784326152223073
tp673
a(S'day'
p674
F0.00943007282946703
tp675
a(S'time'
p676
F0.008889705740091465
tp677
a(S'happy'
p678
F0.008869692144188666
tp679
asI2
(lp680
(S'home'
p681
F0.021821486648188018
tp682
a(S'great'
p683
F0.015264537607516896
tp684
a(S'storage'
p685
F0.014277184998057576
tp686
a(S'good'
p687
F0.008545238641129304
tp688
a(S'real'
p689
F0.008217225525906242
tp690
assg77
(lp691
S'#moving'
p692
aS'#realestate'
p693
aS'#movers'
p694
asg82
g27
(g31
S'\x00\x00\x00\x00\x00\x00\x00\x00'
p695
tp696
Rp697
sg86
(lp698
V@markbeck
p699
aV@KingDavidMoving
p700
aV@WeAreLogos
p701
asg91
(lp702
V@YouTube
p703
aV@ShareThis
p704
aV@Forbes
p705
asg96
S'2-0'
p706
sg98
S'2-0'
p707
sasS'root'
p708
(dp709
S'id_'
p710
I190777368
sS'description'
p711
Vhttp://t.co/6ZUGVs3yjb offers online tools to help you move, from free moving quotes to packing and relocation tips at http://t.co/6EWbaPxoPo and @movingdotcom.
p712
sS'friends_count'
p713
I535
sS'followers_count'
p714
I875
sS'name_'
p715
VMoving.com
p716
sS'screen_name'
p717
VMovingDotCom
p718
ss.