(dp0
S'directed'
p1
I01
sS'links'
p2
(lp3
(dp4
S'source'
p5
I0
sS'target'
p6
I11
sS'value'
p7
I1
sa(dp8
g5
I1
sg6
I10
sg7
I1
sa(dp9
g5
I2
sg6
I11
sg7
I1
sa(dp10
g5
I3
sg6
I11
sg7
I1
sa(dp11
g5
I4
sg6
I9
sg7
I1
sa(dp12
g5
I5
sg6
I8
sg7
I1
sa(dp13
g5
I6
sg6
I9
sg7
I1
sa(dp14
g5
I7
sg6
I11
sg7
I1
sa(dp15
g5
I8
sg6
I12
sg7
I1
sa(dp16
g5
I9
sg6
I12
sg7
I1
sa(dp17
g5
I10
sg6
I12
sg7
I1
sa(dp18
g5
I11
sg6
I12
sg7
I1
sasS'multigraph'
p19
I00
sS'graph'
p20
(lp21
sS'nodes'
p22
(lp23
(dp24
S'group'
p25
I0
sS'comm_size'
p26
I13
sS'sentiment'
p27
(cnumpy.core.multiarray
scalar
p28
(cnumpy
dtype
p29
(S'f8'
p30
I0
I1
tp31
Rp32
(I3
S'<'
p33
NNNI-1
I-1
I0
tp34
bS'\xc9\x13lQp\xa6\x16@'
p35
tp36
Rp37
g28
(g32
S'\x9fj\xef\xcd\xb3\xb5\xd5?'
p38
tp39
Rp40
tp41
sS'density'
p42
F1.0
sS'topics'
p43
(dp44
I0
(lp45
(S'weekend'
p46
F0.015264757300919649
tp47
a(S'great'
p48
F0.013739454880381944
tp49
a(S'students'
p50
F0.013387462014104012
tp51
a(S'love'
p52
F0.010923511950158489
tp53
a(S'school'
p54
F0.00822489997536101
tp55
asI1
(lp56
(S'edtech'
p57
F0.02911136724144008
tp58
a(S'education'
p59
F0.017813737461343772
tp60
a(S'edsurge'
p61
F0.01347727350534721
tp62
a(S'learning'
p63
F0.009483161966929323
tp64
a(S'sf'
p65
F0.008684339659245746
tp66
asI2
(lp67
(S'startup'
p68
F0.015768620331358965
tp69
a(S'kids'
p70
F0.015426072460293963
tp71
a(S'teachers'
p72
F0.012343141620708938
tp73
a(S'swnycedu'
p74
F0.012343141620708938
tp75
a(S'nyc'
p76
F0.012114776373332269
tp77
assS'hashtags'
p78
(lp79
S'#edtech'
p80
aS'#edchat'
p81
aS'#edtechchat'
p82
asS'modularity'
p83
g28
(g32
S'\xa1\x87%.\x89\x8e\xc5?'
p84
tp85
Rp86
sS'most_connected'
p87
(lp88
V@SocraticLabs
p89
aV@heatherg
p90
aV@debryc
p91
asS'mentioned'
p92
(lp93
V@EdSurge
p94
aV@4pt0schools
p95
aV@debryc
p96
asS'id'
p97
S'0-4'
p98
sS'name'
p99
g98
sa(dp100
g25
I0
sg26
I36
sg27
(g28
(g32
S'k\x8a\xef\xc5\x1f\x7f\x16@'
p101
tp102
Rp103
g28
(g32
S'\xb4\xbd\xbaHS/\xd8?'
p104
tp105
Rp106
tp107
sg42
F0.9714285714285714
sg43
(dp108
I0
(lp109
(S'world'
p110
F0.013230336602802331
tp111
a(S'mobile'
p112
F0.013230336602802331
tp113
a(S'digital'
p114
F0.007470651013874301
tp115
a(S'apps'
p116
F0.006962443461910063
tp117
a(S'time'
p118
F0.006454235909945824
tp119
asI1
(lp120
(S'today'
p121
F0.009126898676517241
tp122
a(S'great'
p123
F0.008464328899637587
tp124
a(S'make'
p125
F0.007801759122757932
tp126
a(S'learning'
p127
F0.007470474234318105
tp128
a(S'app'
p129
F0.006642262013218537
tp130
asI2
(lp131
(S'barcelona'
p132
F0.009428510097257651
tp133
a(S'education'
p134
F0.009098264559700465
tp135
a(S'people'
p136
F0.007612159640693129
tp137
a(S'work'
p138
F0.007612159640693129
tp139
a(S'science'
p140
F0.006951668565578758
tp141
assg78
(lp142
S'#tic'
p143
aS'#edtech'
p144
aS'#education'
p145
asg83
g86
sg87
(lp146
V@Magil_
p147
aV@appcircus
p148
aV@sergicervell
p149
asg92
(lp150
V@LaVanguardia
p151
aV@scoopit
p152
aV@YouTube
p153
asg97
S'0-5'
p154
sg99
g154
sa(dp155
g25
I0
sg26
I3
sg27
(g28
(g32
S'\xd3\r\x03\x1b6\xd4\x16@'
p156
tp157
Rp158
g28
(g32
S'd\xdc\xeed\x89z\xd7?'
p159
tp160
Rp161
tp162
sg42
F1.0
sg43
(dp163
I0
(lp164
(S'sltchat'
p165
F0.029463364293085263
tp166
a(S'great'
p167
F0.027915376676986212
tp168
a(S'time'
p169
F0.014499484004127774
tp170
a(S'miss'
p171
F0.012951496388028724
tp172
a(S'ianfordham'
p173
F0.012951496388028724
tp174
asI1
(lp175
(S'sltchat'
p176
F0.03929263565891415
tp177
a(S'blog'
p178
F0.02136627906976713
tp179
a(S'msfindlater'
p180
F0.01894379844961213
tp181
a(S'teachertoolkit'
p182
F0.01845930232558113
tp183
a(S'teaching'
p184
F0.016036821705426123
tp185
asI2
(lp186
(S'teachers'
p187
F0.016529351184345783
tp188
a(S'education'
p189
F0.012924819773429257
tp190
a(S'ealchat'
p191
F0.011380020597322174
tp192
a(S'work'
p193
F0.010865087538619813
tp194
a(S'teachmeet'
p195
F0.010350154479917453
tp196
assg78
(lp197
S'#education'
p198
aS'#edtech'
p199
aS'#ukedchat'
p200
asg83
g86
sg87
(lp201
V@MsFindlater
p202
aV@Miss_Wilsey
p203
aV@ianfordham
p204
asg92
(lp205
V@HuntingEnglish
p206
aV@TeacherToolkit
p207
aV@johntomsett
p208
asg97
S'0-6'
p209
sg99
g209
sa(dp210
g25
I0
sg26
I3
sg27
(g28
(g32
S'p\xbe\x99\xba\xf2\xb0\x16@'
p211
tp212
Rp213
g28
(g32
S'\xa5\xe3\xc8\xbc\x16\xa8\xd2?'
p214
tp215
Rp216
tp217
sg42
F1.0
sg43
(dp218
I0
(lp219
(S'dyslexia'
p220
F0.11898655475246706
tp221
a(S'students'
p222
F0.013289811144788942
tp223
a(S'reach'
p224
F0.01251262920649719
tp225
a(S'dyslexiahelp'
p226
F0.011735447268205438
tp227
a(S'awareness'
p228
F0.008626719515038435
tp229
asI1
(lp230
(S'education'
p231
F0.01560840075181819
tp232
a(S'6jysq9ts52'
p233
F0.014791206995178495
tp234
a(S'read'
p235
F0.014791206995178495
tp236
a(S'followers'
p237
F0.013974013238538798
tp238
a(S'brain'
p239
F0.013156819481899102
tp240
asI2
(lp241
(S'week'
p242
F0.027930293626163637
tp243
a(S'twitter'
p244
F0.02156441473700953
tp245
a(S'learning'
p246
F0.017585740431288216
tp247
a(S'dyslexic'
p248
F0.015198535847855426
tp249
a(S'dyslexia'
p250
F0.014402800986711163
tp251
assg78
(lp252
S'#literacy'
p253
aS'#dyslexia'
p254
aS'#summerlearning'
p255
asg83
g86
sg87
(lp256
V@ForDyslexia
p257
aV@KathrynHart17
p258
aV@embracedyslexia
p259
asg92
(lp260
V@BigPictureMovie
p261
aV@KathrynHart17
p262
aV@bnpowers
p263
asg97
S'0-7'
p264
sg99
g264
sa(dp265
g25
I0
sg26
I52
sg27
(g28
(g32
S'\x86\xc3M\xbe(v\x16@'
p266
tp267
Rp268
g28
(g32
S'p\xa2\xef\xa8\xe7\xfd\xd6?'
p269
tp270
Rp271
tp272
sg42
F0.9705882352941176
sg43
(dp273
I0
(lp274
(S'4pt0schools'
p275
F0.011956725132797254
tp276
a(S'ideavillage'
p277
F0.010734702762150456
tp278
a(S'orleans'
p279
F0.00970362138691722
tp280
a(S'nolatech'
p281
F0.008405222618104998
tp282
a(S'day'
p283
F0.007030447451127352
tp284
asI1
(lp285
(S'nola'
p286
F0.026768042574778154
tp287
a(S'good'
p288
F0.007130656399966225
tp289
a(S'today'
p290
F0.006472203609094819
tp291
a(S'3d'
p292
F0.005813750818223413
tp293
a(S'awesome'
p294
F0.005232763061572172
tp295
asI2
(lp296
(S'great'
p297
F0.016902929556231967
tp298
a(S'startup'
p299
F0.008045499221088577
tp300
a(S'check'
p301
F0.006491564074572194
tp302
a(S'time'
p303
F0.006219625423931827
tp304
a(S'love'
p305
F0.006025383530617279
tp306
assg78
(lp307
S'#nola'
p308
aS'#nolatech'
p309
aS'#startup'
p310
asg83
g86
sg87
(lp311
V@IdeaVillage
p312
aV@cschultz
p313
aV@SiliconBayou
p314
asg92
(lp315
V@IdeaVillage
p316
aV@SiliconBayou
p317
aV@4pt0schools
p318
asg97
S'0-0'
p319
sg99
g319
sa(dp320
g25
I0
sg26
I91
sg27
(g28
(g32
S'RD\xc6\x08Rf\x16@'
p321
tp322
Rp323
g28
(g32
S'\xaa\x07\xa0a\xada\xd8?'
p324
tp325
Rp326
tp327
sg42
F0.9684981684981685
sg43
(dp328
I0
(lp329
(S'students'
p330
F0.012278308321961631
tp331
a(S'time'
p332
F0.007319812274018165
tp333
a(S'people'
p334
F0.007293009592677931
tp335
a(S'kids'
p336
F0.006515731833811116
tp337
a(S'make'
p338
F0.005738454074944303
tp339
asI1
(lp340
(S'education'
p341
F0.014119121178140707
tp342
a(S'school'
p343
F0.01325869101683714
tp344
a(S'schools'
p345
F0.011242057826281907
tp346
a(S'great'
p347
F0.007397010542956596
tp348
a(S'learning'
p349
F0.005084604484453262
tp350
asI2
(lp351
(S'edtech'
p352
F0.009604249298601339
tp353
a(S'love'
p354
F0.008748398623148142
tp355
a(S'day'
p356
F0.008427454619853192
tp357
a(S'check'
p358
F0.0073308959419287854
tp359
a(S'today'
p360
F0.006822734603378449
tp361
assg78
(lp362
S'#education'
p363
aS'#edtech'
p364
aS'#edchat'
p365
asg83
g86
sg87
(lp366
V@TEACHED
p367
aV@aliciaherald
p368
aV@srejax
p369
asg92
(lp370
V@educationweek
p371
aV@TeachForAmerica
p372
aV@EdSurge
p373
asg97
S'0-1'
p374
sg99
g374
sa(dp375
g25
I0
sg26
I25
sg27
(g28
(g32
S'f\x88\x16\x05\xc2:\x16@'
p376
tp377
Rp378
g28
(g32
S':Z\xe1X\x1c\x15\xd7?'
p379
tp380
Rp381
tp382
sg42
F1.0
sg43
(dp383
I0
(lp384
(S'nolaed'
p385
F0.026594241097692005
tp386
a(S'school'
p387
F0.02414949615334801
tp388
a(S'students'
p389
F0.019183607985149273
tp390
a(S'day'
p391
F0.00963382304630555
tp392
a(S'everfi'
p393
F0.008335052294622803
tp394
asI1
(lp395
(S'schools'
p396
F0.01634290184289145
tp397
a(S'today'
p398
F0.012048192771085157
tp399
a(S'teachers'
p400
F0.008367013566679762
tp401
a(S'good'
p402
F0.008367013566679762
tp403
a(S'la'
p404
F0.008367013566679762
tp405
asI2
(lp406
(S'nola'
p407
F0.021045963257550575
tp408
a(S'education'
p409
F0.014476431805918287
tp410
a(S'great'
p411
F0.01267763152749516
tp412
a(S'edreform'
p413
F0.009001822262891382
tp414
a(S'orleans'
p415
F0.007515856815498365
tp416
assg78
(lp417
S'#nolaed'
p418
aS'#nola'
p419
aS'#education'
p420
asg83
g86
sg87
(lp421
V@NSNO_NOLA
p422
aV@jwilliamsNOLA
p423
aV@colleston
p424
asg92
(lp425
V@NOLAnews
p426
aV@djdreilinger
p427
aV@LouisianaSupe
p428
asg97
S'0-2'
p429
sg99
g429
sa(dp430
g25
I0
sg26
I47
sg27
(g28
(g32
S'V\x0e\x16\x13\xc8\x8c\x16@'
p431
tp432
Rp433
g28
(g32
S'\xc0n\xa8\x19\x92\\\xd6?'
p434
tp435
Rp436
tp437
sg42
F1.0
sg43
(dp438
I0
(lp439
(S'edtech'
p440
F0.033678491250386695
tp441
a(S'teacher'
p442
F0.01097265793533932
tp443
a(S'great'
p444
F0.009948884452535252
tp445
a(S'school'
p446
F0.00965637774316266
tp447
a(S'read'
p448
F0.008925110969731182
tp449
asI1
(lp450
(S'students'
p451
F0.018043547514795297
tp452
a(S'learning'
p453
F0.0143392675897706
tp454
a(S'schools'
p455
F0.013079812415262203
tp456
a(S'edchat'
p457
F0.010820201660997139
tp458
a(S'kids'
p459
F0.008523548107481826
tp460
asI2
(lp461
(S'education'
p462
F0.03186669538543221
tp463
a(S'teachers'
p464
F0.021579928549673295
tp465
a(S'teaching'
p466
F0.007059618684035266
tp467
a(S'time'
p468
F0.006576846233259577
tp469
a(S'math'
p470
F0.0064283008637901345
tp471
assg78
(lp472
S'#edchat'
p473
aS'#edtech'
p474
aS'#education'
p475
asg83
g86
sg87
(lp476
V@tvanderark
p477
aV@BroadFoundation
p478
aV@EdSurge
p479
asg92
(lp480
V@edutopia
p481
aV@MindShiftKQED
p482
aV@Edudemic
p483
asg97
S'0-3'
p484
sg99
g484
sa(dp485
g25
I1
sg26
I91
sg27
(g28
(g32
S'RD\xc6\x08Rf\x16@'
p486
tp487
Rp488
g28
(g32
S'\xaa\x07\xa0a\xada\xd8?'
p489
tp490
Rp491
tp492
sg42
F0.9684981684981685
sg43
(dp493
I0
(lp494
(S'edtech'
p495
F0.009555614425202526
tp496
a(S'day'
p497
F0.008404980372321796
tp498
a(S'love'
p499
F0.008164149989160714
tp500
a(S'kids'
p501
F0.006879721278968271
tp502
a(S'learning'
p503
F0.006424819444108447
tp504
asI1
(lp505
(S'great'
p506
F0.0135181433392561
tp507
a(S'students'
p508
F0.012304181155527255
tp509
a(S'people'
p510
F0.00739437854577948
tp511
a(S'work'
p512
F0.005425062114397129
tp513
a(S'world'
p514
F0.005128315802818967
tp515
asI2
(lp516
(S'education'
p517
F0.014635240462791636
tp518
a(S'schools'
p519
F0.011164010285519398
tp520
a(S'school'
p521
F0.009321588114505674
tp522
a(S'teachers'
p523
F0.007612674796463958
tp524
a(S'check'
p525
F0.007399060631708743
tp526
assg78
(lp527
S'#education'
p528
aS'#edtech'
p529
aS'#edchat'
p530
asg83
g28
(g32
S'24\x9e\x1c\xbeW\xc7?'
p531
tp532
Rp533
sg87
(lp534
V@TEACHED
p535
aV@aliciaherald
p536
aV@srejax
p537
asg92
(lp538
V@educationweek
p539
aV@TeachForAmerica
p540
aV@EdSurge
p541
asg97
S'1-1'
p542
sg99
S'1-1'
p543
sa(dp544
g25
I1
sg26
I77
sg27
(g28
(g32
S'\xd7\x18\xd1\xfaPc\x16@'
p545
tp546
Rp547
g28
(g32
S'\xb5>\x0f\x04\xda\x15\xd7?'
p548
tp549
Rp550
tp551
sg42
F0.968215994531784
sg43
(dp552
I0
(lp553
(S'great'
p554
F0.01645186894901925
tp555
a(S'nola'
p556
F0.013605886223351741
tp557
a(S'students'
p558
F0.010054935299583104
tp559
a(S'good'
p560
F0.0083577896374878
tp561
a(S'work'
p562
F0.006869523441496533
tp563
asI1
(lp564
(S'today'
p565
F0.009484693559446715
tp566
a(S'school'
p567
F0.007380447658829941
tp568
a(S'time'
p569
F0.007276534281021706
tp570
a(S'love'
p571
F0.007224577592117588
tp572
a(S'day'
p573
F0.007094685869857294
tp574
asI2
(lp575
(S'nola'
p576
F0.011239257548325469
tp577
a(S'nolaed'
p578
F0.008326050315248745
tp579
a(S'check'
p580
F0.007051522150777679
tp581
a(S'schools'
p582
F0.007025511371910922
tp583
a(S'people'
p584
F0.005230767630104725
tp585
assg78
(lp586
S'#nola'
p587
aS'#nolatech'
p588
aS'#nolaed'
p589
asg83
g533
sg87
(lp590
V@IdeaVillage
p591
aV@cschultz
p592
aV@City_Business
p593
asg92
(lp594
V@4pt0schools
p595
aV@NOLAnews
p596
aV@IdeaVillage
p597
asg97
S'1-0'
p598
sg99
S'1-0'
p599
sa(dp600
g25
I1
sg26
I36
sg27
(g28
(g32
S'k\x8a\xef\xc5\x1f\x7f\x16@'
p601
tp602
Rp603
g28
(g32
S'\xb4\xbd\xbaHS/\xd8?'
p604
tp605
Rp606
tp607
sg42
F0.9714285714285714
sg43
(dp608
I0
(lp609
(S'people'
p610
F0.007607135195789122
tp611
a(S'learning'
p612
F0.007442121417138599
tp613
a(S'work'
p614
F0.007442121417138599
tp615
a(S'world'
p616
F0.006287024966584936
tp617
a(S'social'
p618
F0.005956997409283889
tp619
asI1
(lp620
(S'mobile'
p621
F0.012934532386015976
tp622
a(S'education'
p623
F0.010284692204501822
tp624
a(S'innovation'
p625
F0.007800467034332299
tp626
a(S'make'
p627
F0.007634852022987665
tp628
a(S'digital'
p629
F0.007303622000298395
tp630
asI2
(lp631
(S'great'
p632
F0.007985622488598288
tp633
a(S'bitcoin'
p634
F0.007646530238551653
tp635
a(S'apps'
p636
F0.006629253488411743
tp637
a(S'time'
p638
F0.006290161238365106
tp639
a(S'favorite'
p640
F0.0061206151133417885
tp641
assg78
(lp642
S'#tic'
p643
aS'#edtech'
p644
aS'#education'
p645
asg83
g533
sg87
(lp646
V@Magil_
p647
aV@appcircus
p648
aV@sergicervell
p649
asg92
(lp650
V@LaVanguardia
p651
aV@scoopit
p652
aV@YouTube
p653
asg97
S'1-3'
p654
sg99
S'1-3'
p655
sa(dp656
g25
I1
sg26
I66
sg27
(g28
(g32
S'\xe2\xfb\xf7\x99\x12\x97\x16@'
p657
tp658
Rp659
g28
(g32
S'<\xc9\xd9Q\x033\xd6?'
p660
tp661
Rp662
tp663
sg42
F1.0
sg43
(dp664
I0
(lp665
(S'edtech'
p666
F0.03195813538425931
tp667
a(S'students'
p668
F0.01687016088680818
tp669
a(S'teachers'
p670
F0.012562995517450336
tp671
a(S'great'
p672
F0.01073180545023832
tp673
a(S'teacher'
p674
F0.010112811624701862
tp675
asI1
(lp676
(S'education'
p677
F0.01901362107505793
tp678
a(S'learning'
p679
F0.01789071803120751
tp680
a(S'school'
p681
F0.0140780704869712
tp682
a(S'kids'
p683
F0.009351432093089198
tp684
a(S'make'
p685
F0.00694894185973481
tp686
asI2
(lp687
(S'edchat'
p688
F0.010235379711386756
tp689
a(S'schools'
p690
F0.008063207591608949
tp691
a(S'teachers'
p692
F0.007749158610436253
tp693
a(S'love'
p694
F0.007225743641815094
tp695
a(S'edsurge'
p696
F0.0071995728933840365
tp697
assg78
(lp698
S'#edchat'
p699
aS'#edtech'
p700
aS'#education'
p701
asg83
g533
sg87
(lp702
V@tvanderark
p703
aV@EdSurge
p704
aV@BroadFoundation
p705
asg92
(lp706
V@edutopia
p707
aV@EdSurge
p708
aV@MindShiftKQED
p709
asg97
S'1-2'
p710
sg99
S'1-2'
p711
sa(dp712
g25
I2
sg26
I270
sg27
(g28
(g32
S'B\xb1\xe4H\nv\x16@'
p713
tp714
Rp715
g28
(g32
S'5\xe7\x1d\x80\xe8T\xd7?'
p716
tp717
Rp718
tp719
sg42
F0.9276056725870853
sg43
(dp720
I0
(lp721
(S'school'
p722
F0.012543947551684455
tp723
a(S'students'
p724
F0.012059887562214539
tp725
a(S'nola'
p726
F0.008688452196959155
tp727
a(S'good'
p728
F0.007414610119406742
tp729
a(S'tech'
p730
F0.005503847003078124
tp731
asI1
(lp732
(S'edtech'
p733
F0.014523301391887143
tp734
a(S'learning'
p735
F0.010135956670726927
tp736
a(S'today'
p737
F0.009404732550533557
tp738
a(S'time'
p739
F0.007143039341563368
tp740
a(S'check'
p741
F0.006981489826636927
tp742
asI2
(lp743
(S'education'
p744
F0.016802450022431147
tp745
a(S'great'
p746
F0.01450978401564456
tp747
a(S'day'
p748
F0.007894046682407988
tp749
a(S'love'
p750
F0.007377985330326874
tp751
a(S'kids'
p752
F0.005897481451405646
tp753
assg78
(lp754
S'#edtech'
p755
aS'#edchat'
p756
aS'#education'
p757
asg83
g28
(g32
S'\x00\x00\x00\x00\x00\x00\x00\x00'
p758
tp759
Rp760
sg87
(lp761
V@tvanderark
p762
aV@BroadFoundation
p763
aV@EdSurge
p764
asg92
(lp765
V@educationweek
p766
aV@4pt0schools
p767
aV@edutopia
p768
asg97
S'2-0'
p769
sg99
S'2-0'
p770
sasS'root'
p771
(dp772
S'id_'
p773
I18129858
sS'description'
p774
VWe make personalized learning incredibly simple for schools and community centers. Working to get every student the awesome education they deserve.
p775
sS'friends_count'
p776
I178
sS'followers_count'
p777
I291
sS'name_'
p778
VmSchool
p779
sS'screen_name'
p780
Vmschools
p781
ss.