(dp0
S'directed'
p1
I01
sS'links'
p2
(lp3
(dp4
S'source'
p5
I0
sS'target'
p6
I9
sS'value'
p7
I1
sa(dp8
g5
I1
sg6
I7
sg7
I1
sa(dp9
g5
I3
sg6
I8
sg7
I1
sa(dp10
g5
I4
sg6
I7
sg7
I1
sa(dp11
g5
I5
sg6
I10
sg7
I1
sa(dp12
g5
I6
sg6
I7
sg7
I1
sa(dp13
g5
I7
sg6
I2
sg7
I1
sa(dp14
g5
I8
sg6
I2
sg7
I1
sa(dp15
g5
I9
sg6
I2
sg7
I1
sa(dp16
g5
I10
sg6
I2
sg7
I1
sasS'multigraph'
p17
I00
sS'graph'
p18
(lp19
sS'nodes'
p20
(lp21
(dp22
S'group'
p23
I0
sS'comm_size'
p24
I20
sS'sentiment'
p25
(cnumpy.core.multiarray
scalar
p26
(cnumpy
dtype
p27
(S'f8'
p28
I0
I1
tp29
Rp30
(I3
S'<'
p31
NNNI-1
I-1
I0
tp32
bS'\xe3J\xa0\xe3\xdfO\x16@'
p33
tp34
Rp35
g26
(g30
S'\x0bT\x00\xda<\x07\xda?'
p36
tp37
Rp38
tp39
sS'density'
p40
F0.9789473684210527
sS'topics'
p41
(dp42
I0
(lp43
(S'great'
p44
F0.01469322079351943
tp45
a(S'dell'
p46
F0.011305734731612933
tp47
a(S'work'
p48
F0.006789086649070938
tp49
a(S'love'
p50
F0.006506796143912063
tp51
a(S'time'
p52
F0.005942215133594314
tp53
asI1
(lp54
(S'good'
p55
F0.008500827451591007
tp56
a(S'day'
p57
F0.0076521591535952315
tp58
a(S'sf'
p59
F0.005671933124938425
tp60
a(S'back'
p61
F0.005106154259607909
tp62
a(S'elonmusk'
p63
F0.005106154259607909
tp64
asI2
(lp65
(S'cloud'
p66
F0.00895554742646613
tp67
a(S'openstack'
p68
F0.008549092929047094
tp69
a(S'twitter'
p70
F0.008278123264101067
tp71
a(S'today'
p72
F0.007736183934209018
tp73
a(S'people'
p74
F0.005974881112059854
tp75
assS'hashtags'
p76
(lp77
S'#openstack'
p78
aS'#dell'
p79
aS'#cloud'
p80
asS'modularity'
p81
g26
(g30
S'\x03\x14\xb7\xf3\x91\xdf\xc5?'
p82
tp83
Rp84
sS'most_connected'
p85
(lp86
V@fruizperman
p87
aV@doodie
p88
aV@naterockhold
p89
asS'mentioned'
p90
(lp91
V@doodie
p92
aV@NodePrime
p93
aV@jamesmalac
p94
asS'id'
p95
S'0-4'
p96
sS'name'
p97
g96
sa(dp98
g23
I0
sg24
I3
sg25
(g26
(g30
S'v\x1e\xb7\x8d\x80Y\x16@'
p99
tp100
Rp101
g26
(g30
S'\xf6\xc7\xc6\xe1\xa1Y\xd1?'
p102
tp103
Rp104
tp105
sg40
F1.0
sg41
(dp106
I0
(lp107
(S'venture'
p108
F0.032765575974898625
tp109
a(S'capital'
p110
F0.024697445091886653
tp111
a(S'vc'
p112
F0.018422232182877342
tp113
a(S'june'
p114
F0.010354101299865368
tp115
a(S'market'
p116
F0.007216494845360711
tp117
asI1
(lp118
(S'venture2013'
p119
F0.016580066131317656
tp120
a(S'mt'
p121
F0.01563533301842206
tp122
a(S'conference'
p123
F0.011384034010391893
tp124
a(S'data'
p125
F0.009494567784600708
tp126
a(S'mobile'
p127
F0.009494567784600708
tp128
asI2
(lp129
(S'dropcam'
p130
F0.008701923076922942
tp131
a(S'wow'
p132
F0.007740384615384496
tp133
a(S'great'
p134
F0.006778846153846049
tp135
a(S'menlo'
p136
F0.006778846153846049
tp137
a(S'company'
p138
F0.006778846153846049
tp139
assg76
(lp140
S'#vc'
p141
aS'#tech'
p142
aS'#cloud'
p143
asg81
g84
sg85
(lp144
V@MenloVentures
p145
aV@VentureCapConf
p146
aV@clintchao
p147
asg90
(lp148
V@MenloVentures
p149
aV@msiegel11
p150
aV@Forbes
p151
asg95
S'0-5'
p152
sg97
g152
sa(dp153
g23
I2
sg24
I104
sg25
(g26
(g30
S'\x92\x84\x90\x16\x05\\\x16@'
p154
tp155
Rp156
g26
(g30
S'\xfc\xeb\r5\x0b\xdc\xd8?'
p157
tp158
Rp159
tp160
sg40
F0.8777072442120986
sg41
(dp161
I0
(lp162
(S'great'
p163
F0.01258851114808965
tp164
a(S'day'
p165
F0.006551806116882061
tp166
a(S'big'
p167
F0.0060390358053509135
tp168
a(S'love'
p169
F0.005619496459552702
tp170
a(S'work'
p171
F0.005199957113754492
tp172
asI1
(lp173
(S'cloud'
p174
F0.01619150554792342
tp175
a(S'data'
p176
F0.009790050840536422
tp177
a(S'check'
p178
F0.009117434222731266
tp179
a(S'google'
p180
F0.006195030986750245
tp181
a(S'people'
p182
F0.005661576427801327
tp183
asI2
(lp184
(S'good'
p185
F0.007648521977994183
tp186
a(S'today'
p187
F0.007388930056494844
tp188
a(S'rageofbahamut'
p189
F0.006303363839315786
tp190
a(S'make'
p191
F0.005854977793089654
tp192
a(S'world'
p193
F0.005146999825364182
tp194
assg76
(lp195
S'#cloud'
p196
aS'#bigdata'
p197
aS'#openstack'
p198
asg81
g26
(g30
S'\x00\x00\x00\x00\x00\x00\x00\x00'
p199
tp200
Rp201
sg85
(lp202
V@naterockhold
p203
aV@CDP_FST
p204
aV@KharatAbhijit
p205
asg90
(lp206
V@TechCrunch
p207
aV@Forbes
p208
aV@YouTube
p209
asg95
S'2-0'
p210
sg97
S'2-0'
p211
sa(dp212
g23
I0
sg24
I25
sg25
(g26
(g30
S'\xaf\xff\x83 \xb6X\x16@'
p213
tp214
Rp215
g26
(g30
S'\x16.\xb3z\x8b\xe4\xd5?'
p216
tp217
Rp218
tp219
sg40
F0.98
sg41
(dp220
I0
(lp221
(S'great'
p222
F0.01031513508687994
tp223
a(S'redaptevents'
p224
F0.009828189292062634
tp225
a(S'intel'
p226
F0.007474617950445653
tp227
a(S'good'
p228
F0.007231145053037
tp229
a(S'data'
p230
F0.006581883993280592
tp231
asI1
(lp232
(S'hp'
p233
F0.010981329301698749
tp234
a(S'openstack'
p235
F0.00870540613036222
tp236
a(S'software'
p237
F0.008380274248742716
tp238
a(S'devops'
p239
F0.007730010485503708
tp240
a(S'check'
p241
F0.00667333187024032
tp242
asI2
(lp243
(S'cloud'
p244
F0.04399267192330026
tp245
a(S'open'
p246
F0.010903338794419124
tp247
a(S'itpt'
p248
F0.008159345315438738
tp249
a(S'hadoop'
p250
F0.007110171338181532
tp251
a(S'read'
p252
F0.005657468908133091
tp253
assg76
(lp254
S'#bigdata'
p255
aS'#cloud'
p256
aS'#openstack'
p257
asg81
g84
sg85
(lp258
V@KharatAbhijit
p259
aV@CDP_FST
p260
aV@boundary
p261
asg90
(lp262
V@gigaom
p263
aV@OpenStack
p264
aV@Forbes
p265
asg95
S'0-0'
p266
sg97
g266
sa(dp267
g23
I0
sg24
I27
sg25
(g26
(g30
S'H\xec\xce\x8e\x01m\x16@'
p268
tp269
Rp270
g26
(g30
S'\x85L\xce\xecg\x7f\xd9?'
p271
tp272
Rp273
tp274
sg40
F0.9316239316239316
sg41
(dp275
I0
(lp276
(S'great'
p277
F0.013377738993988721
tp278
a(S'good'
p279
F0.008173950636063725
tp280
a(S'check'
p281
F0.006652843269901034
tp282
a(S'world'
p283
F0.00585226044560488
tp284
a(S'facebook'
p285
F0.005211794186167957
tp286
asI1
(lp287
(S'day'
p288
F0.007462393772707542
tp289
a(S'startup'
p290
F0.007226987029089008
tp291
a(S'takelessons'
p292
F0.006599235712772916
tp293
a(S'business'
p294
F0.006049953310996336
tp295
a(S'work'
p296
F0.005500670909219755
tp297
asI2
(lp298
(S'today'
p299
F0.008971930563026389
tp300
a(S'time'
p301
F0.007335001442057195
tp302
a(S'big'
p303
F0.006789358401734131
tp304
a(S'love'
p305
F0.006243715361411066
tp306
a(S'people'
p307
F0.00608781734989019
tp308
assg76
(lp309
S'#startups'
p310
aS'#startup'
p311
aS'#worldcup'
p312
asg81
g84
sg85
(lp313
V@MikeMcCorms
p314
aV@AlanBradyCole
p315
aV@zachtratar
p316
asg90
(lp317
V@TechCrunch
p318
aV@VentureBeat
p319
aV@Forbes
p320
asg95
S'0-1'
p321
sg97
g321
sa(dp322
g23
I0
sg24
I21
sg25
(g26
(g30
S'\x90V\xa7\xb3\xf4=\x16@'
p323
tp324
Rp325
g26
(g30
S'x\xd1\xdf\x87\xe1l\xdb?'
p326
tp327
Rp328
tp329
sg40
F0.9761904761904762
sg41
(dp330
I0
(lp331
(S'time'
p332
F0.008810766434058976
tp333
a(S'd3js'
p334
F0.006758341640767367
tp335
a(S'love'
p336
F0.005732129244121563
tp337
a(S'js'
p338
F0.005585527473172162
tp339
a(S'things'
p340
F0.004852518618425159
tp341
asI1
(lp342
(S'pic'
p343
F0.010409551245879755
tp344
a(S'node'
p345
F0.009370081078673504
tp346
a(S'google'
p347
F0.00892459386415654
tp348
a(S'cc'
p349
F0.007291140744261
tp350
a(S'good'
p351
F0.006697157791571712
tp352
asI2
(lp353
(S'data'
p354
F0.009219396136634476
tp355
a(S'angularjs'
p356
F0.008511301195264701
tp357
a(S'people'
p358
F0.007519968277347015
tp359
a(S'app'
p360
F0.006953492324251195
tp361
a(S'js'
p362
F0.006953492324251195
tp363
assg76
(lp364
S'#nodejs'
p365
aS'#javascript'
p366
aS'#twitter'
p367
asg81
g84
sg85
(lp368
V@kgryte
p369
aV@gdi2290
p370
aV@GQAdonis2008
p371
asg90
(lp372
V@YouTube
p373
aV@verge
p374
aV@NodePrime
p375
asg95
S'0-2'
p376
sg97
g376
sa(dp377
g23
I0
sg24
I8
sg25
(g26
(g30
S' \xb2f\x86S\x87\x16@'
p378
tp379
Rp380
g26
(g30
S'\x10\xe0\xdf\xc0\t\xb2\xda?'
p381
tp382
Rp383
tp384
sg40
F1.0
sg41
(dp385
I0
(lp386
(S'rageofbahamut'
p387
F0.10642771954051815
tp388
a(S'ebay'
p389
F0.0408323394639381
tp390
a(S'item'
p391
F0.03549683007971867
tp392
a(S'found'
p393
F0.03455526960015053
tp394
a(S'cards'
p395
F0.010388550624568418
tp396
asI1
(lp397
(S'aug'
p398
F0.03512933835954713
tp399
a(S'pm'
p400
F0.02797998180163745
tp401
a(S'rage'
p402
F0.01563109320161163
tp403
a(S'code'
p404
F0.014981151696347113
tp405
a(S'12'
p406
F0.014656180943714854
tp407
asI2
(lp408
(S'check'
p409
F0.04292449741339724
tp410
a(S'day'
p411
F0.015421386942570635
tp412
a(S'02'
p413
F0.012802043088206197
tp414
a(S'beat'
p415
F0.011164953179228422
tp416
a(S'great'
p417
F0.010837535197432868
tp418
assg76
(lp419
S'#tech'
p420
aS'#lakings'
p421
aS'#49ers'
p422
asg81
g84
sg85
(lp423
V@bigeagle2k
p424
aV@jrjrj23
p425
aV@JonathanTwitty
p426
asg90
(lp427
V@WSJ
p428
aV@TechCrunch
p429
aV@YouTernMark
p430
asg95
S'0-3'
p431
sg97
g431
sa(dp432
g23
I1
sg24
I38
sg25
(g26
(g30
S'\x10\xc5y\x17\xdbo\x16@'
p433
tp434
Rp435
g26
(g30
S'E\xe7\xd2 \xa0\r\xd9?'
p436
tp437
Rp438
tp439
sg40
F0.8961593172119487
sg41
(dp440
I0
(lp441
(S'great'
p442
F0.012802147091630993
tp443
a(S'aug'
p444
F0.006800255929698727
tp445
a(S'big'
p446
F0.005837688479200156
tp447
a(S'make'
p448
F0.005724445249729736
tp449
a(S'free'
p450
F0.005328093946583266
tp451
asI1
(lp452
(S'rageofbahamut'
p453
F0.018033240840684958
tp454
a(S'check'
p455
F0.013229651146362733
tp456
a(S'ebay'
p457
F0.007578369153042471
tp458
a(S'found'
p459
F0.007521856333109268
tp460
a(S'item'
p461
F0.006674164034111229
tp462
asI2
(lp463
(S'today'
p464
F0.008625857019712361
tp465
a(S'time'
p466
F0.007826637970897185
tp467
a(S'pm'
p468
F0.006799070622420531
tp469
a(S'tech'
p470
F0.0065707223227590515
tp471
a(S'love'
p472
F0.005885677423774615
tp473
assg76
(lp474
S'#startups'
p475
aS'#startup'
p476
aS'#tech'
p477
asg81
g26
(g30
S'\x7fD\xfe\xac\xe8A\xc7?'
p478
tp479
Rp480
sg85
(lp481
V@bigeagle2k
p482
aV@MenloVentures
p483
aV@AlanBradyCole
p484
asg90
(lp485
V@TechCrunch
p486
aV@VentureBeat
p487
aV@WSJ
p488
asg95
S'1-1'
p489
sg97
S'1-1'
p490
sa(dp491
g23
I1
sg24
I25
sg25
(g26
(g30
S'\xaf\xff\x83 \xb6X\x16@'
p492
tp493
Rp494
g26
(g30
S'\x16.\xb3z\x8b\xe4\xd5?'
p495
tp496
Rp497
tp498
sg40
F0.98
sg41
(dp499
I0
(lp500
(S'data'
p501
F0.01615095085531793
tp502
a(S'hadoop'
p503
F0.007255985570390156
tp504
a(S'hp'
p505
F0.007008903201364384
tp506
a(S'good'
p507
F0.00684418162201387
tp508
a(S'enterprise'
p509
F0.006514738463312841
tp510
asI1
(lp511
(S'itpt'
p512
F0.014541232635365964
tp513
a(S'great'
p514
F0.012024324697362922
tp515
a(S'big'
p516
F0.006340984192194761
tp517
a(S'aws'
p518
F0.005529078405742167
tp519
a(S'time'
p520
F0.005366697248451648
tp521
asI2
(lp522
(S'cloud'
p523
F0.03966806565419526
tp524
a(S'open'
p525
F0.01067955752705799
tp526
a(S'storage'
p527
F0.00932569863101037
tp528
a(S'redaptevents'
p529
F0.008927504838055187
tp530
a(S'ocp'
p531
F0.00797183973496275
tp532
assg76
(lp533
S'#bigdata'
p534
aS'#cloud'
p535
aS'#openstack'
p536
asg81
g480
sg85
(lp537
V@KharatAbhijit
p538
aV@CDP_FST
p539
aV@boundary
p540
asg90
(lp541
V@gigaom
p542
aV@OpenStack
p543
aV@Forbes
p544
asg95
S'1-0'
p545
sg97
S'1-0'
p546
sa(dp547
g23
I1
sg24
I20
sg25
(g26
(g30
S'\xe3J\xa0\xe3\xdfO\x16@'
p548
tp549
Rp550
g26
(g30
S'\x0bT\x00\xda<\x07\xda?'
p551
tp552
Rp553
tp554
sg40
F0.9789473684210527
sg41
(dp555
I0
(lp556
(S'time'
p557
F0.010690664041376698
tp558
a(S'good'
p559
F0.009304066889447165
tp560
a(S'openstack'
p561
F0.008749428028675352
tp562
a(S'today'
p563
F0.007917469737517634
tp564
a(S'twitter'
p565
F0.0061148934400092406
tp566
asI1
(lp567
(S'great'
p568
F0.0147868947521029
tp569
a(S'dell'
p570
F0.011059106159135782
tp571
a(S'day'
p572
F0.008021648787088501
tp573
a(S'work'
p574
F0.006640986345248828
tp575
a(S'nodeprime'
p576
F0.0059506551243289916
tp577
asI2
(lp578
(S'data'
p579
F0.006792921803725878
tp580
a(S'google'
p581
F0.006792921803725878
tp582
a(S'love'
p583
F0.006651696818201431
tp584
a(S'cloud'
p585
F0.0063692468471525385
tp586
a(S'elonmusk'
p587
F0.005239446962956966
tp588
assg76
(lp589
S'#openstack'
p590
aS'#dell'
p591
aS'#cloud'
p592
asg81
g480
sg85
(lp593
V@fruizperman
p594
aV@doodie
p595
aV@naterockhold
p596
asg90
(lp597
V@doodie
p598
aV@NodePrime
p599
aV@jamesmalac
p600
asg95
S'1-3'
p601
sg97
S'1-3'
p602
sa(dp603
g23
I1
sg24
I21
sg25
(g26
(g30
S'\x90V\xa7\xb3\xf4=\x16@'
p604
tp605
Rp606
g26
(g30
S'x\xd1\xdf\x87\xe1l\xdb?'
p607
tp608
Rp609
tp610
sg40
F0.9761904761904762
sg41
(dp611
I0
(lp612
(S'js'
p613
F0.012776506483600946
tp614
a(S'time'
p615
F0.009255999530599537
tp616
a(S'node'
p617
F0.007642433843807225
tp618
a(S'd3js'
p619
F0.006028868157014913
tp620
a(S'love'
p621
F0.005882180367306521
tp622
asI1
(lp623
(S'angularjs'
p624
F0.008506339492255408
tp625
a(S'data'
p626
F0.008067113700916919
tp627
a(S'people'
p628
F0.007774296506691259
tp629
a(S'make'
p630
F0.00762788790957843
tp631
a(S'app'
p632
F0.007188662118239941
tp633
asI2
(lp634
(S'pic'
p635
F0.010058543304827465
tp636
a(S'great'
p637
F0.008910635367044019
tp638
a(S'google'
p639
F0.008623658382598156
tp640
a(S'cc'
p641
F0.006471330999254191
tp642
a(S'code'
p643
F0.0058973770303624665
tp644
assg76
(lp645
S'#nodejs'
p646
aS'#javascript'
p647
aS'#twitter'
p648
asg81
g480
sg85
(lp649
V@kgryte
p650
aV@gdi2290
p651
aV@GQAdonis2008
p652
asg90
(lp653
V@YouTube
p654
aV@verge
p655
aV@NodePrime
p656
asg95
S'1-2'
p657
sg97
S'1-2'
p658
sasS'root'
p659
(dp660
S'id_'
p661
I963027157
sS'description'
p662
VInfrastructure Without Limits
p663
sS'friends_count'
p664
I46
sS'followers_count'
p665
I105
sS'name_'
p666
VNodePrime
p667
sS'screen_name'
p668
VNodePrime
p669
ss.