(dp0
S'directed'
p1
I01
sS'links'
p2
(lp3
(dp4
S'source'
p5
I0
sS'target'
p6
I11
sS'value'
p7
I1
sa(dp8
g5
I1
sg6
I8
sg7
I1
sa(dp9
g5
I2
sg6
I10
sg7
I1
sa(dp10
g5
I3
sg6
I8
sg7
I1
sa(dp11
g5
I4
sg6
I9
sg7
I1
sa(dp12
g5
I5
sg6
I8
sg7
I1
sa(dp13
g5
I6
sg6
I11
sg7
I1
sa(dp14
g5
I7
sg6
I11
sg7
I1
sa(dp15
g5
I8
sg6
I13
sg7
I1
sa(dp16
g5
I9
sg6
I13
sg7
I1
sa(dp17
g5
I10
sg6
I13
sg7
I1
sa(dp18
g5
I11
sg6
I13
sg7
I1
sa(dp19
g5
I12
sg6
I8
sg7
I1
sasS'multigraph'
p20
I00
sS'graph'
p21
(lp22
sS'nodes'
p23
(lp24
(dp25
S'group'
p26
I0
sS'comm_size'
p27
I25
sS'sentiment'
p28
(cnumpy.core.multiarray
scalar
p29
(cnumpy
dtype
p30
(S'f8'
p31
I0
I1
tp32
Rp33
(I3
S'<'
p34
NNNI-1
I-1
I0
tp35
bS'i\x92I\xe1\xd2j\x16@'
p36
tp37
Rp38
g29
(g33
S'\x02\x18i\xb0\xd5\xdf\xd9?'
p39
tp40
Rp41
tp42
sS'density'
p43
F0.6833333333333333
sS'topics'
p44
(dp45
I0
(lp46
(S'mobile'
p47
F0.012148527763160775
tp48
a(S'personagraph'
p49
F0.011004598595254864
tp50
a(S'product'
p51
F0.008945526093024224
tp52
a(S'tweet'
p53
F0.00848795442586186
tp54
a(S'hope'
p55
F0.006657667757212402
tp56
asI1
(lp57
(S'time'
p58
F0.010284754775064606
tp59
a(S'weartesters'
p60
F0.009818325987079818
tp61
a(S'today'
p62
F0.009351897199095028
tp63
a(S'love'
p64
F0.008885468411110238
tp65
a(S'techcrunch'
p66
F0.0074861820471558704
tp67
asI2
(lp68
(S'great'
p69
F0.011055183984922546
tp70
a(S'gshny'
p71
F0.008986646440966145
tp72
a(S'responsible'
p73
F0.008756808936082099
tp74
a(S'chat'
p75
F0.00829713392631401
tp76
a(S'world'
p77
F0.0062285963823576086
tp78
assS'hashtags'
p79
(lp80
S'#appsworld'
p81
aS'#usabilitystudy'
p82
aS'#thankyousachin'
p83
asS'modularity'
p84
g29
(g33
S'\x8a\xe1\x82O2\xe6\xce?'
p85
tp86
Rp87
sS'most_connected'
p88
(lp89
V@Don_Quinn
p90
aV@irfanabhi
p91
aV@drewwhitcomb
p92
asS'mentioned'
p93
(lp94
V@personagraph
p95
aV@TechCrunch
p96
aV@mashable
p97
asS'id'
p98
S'0-4'
p99
sS'name'
p100
g99
sa(dp101
g26
I0
sg27
I10
sg28
(g29
(g33
S'i\xe9*\x98\xeeZ\x16@'
p102
tp103
Rp104
g29
(g33
S'icv"\xf98\xd6?'
p105
tp106
Rp107
tp108
sg43
F1.0
sg44
(dp109
I0
(lp110
(S'mobile'
p111
F0.05073991129846756
tp112
a(S'mobileadvertising'
p113
F0.01165854301146096
tp114
a(S'facebook'
p115
F0.010780310016247328
tp116
a(S'google'
p117
F0.009682518772230288
tp118
a(S'ads'
p119
F0.009023844025820064
tp120
asI1
(lp121
(S'developers'
p122
F0.011793734154291838
tp123
a(S'advertising'
p124
F0.009982796088373705
tp125
a(S'game'
p126
F0.009756428830133938
tp127
a(S'android'
p128
F0.008624592538935105
tp129
a(S'users'
p130
F0.006813654473016973
tp131
asI2
(lp132
(S'app'
p133
F0.0322183964584357
tp134
a(S'apps'
p135
F0.015449626615391442
tp136
a(S'ad'
p137
F0.014555292223762416
tp138
a(S'twitter'
p139
F0.009412869471895511
tp140
a(S'data'
p141
F0.007847784286544713
tp142
assg79
(lp143
S'#mobile'
p144
aS'#app'
p145
aS'#rtb'
p146
asg84
g87
sg88
(lp147
V@vincenttessier
p148
aV@InMobi
p149
aV@mobpw
p150
asg93
(lp151
V@TechCrunch
p152
aV@mashable
p153
aV@VentureBeat
p154
asg98
S'0-5'
p155
sg100
g155
sa(dp156
g26
I0
sg27
I5
sg28
(g29
(g33
S'\xf5e\x00\xa8\xe3s\x16@'
p157
tp158
Rp159
g29
(g33
S'\x01@\xf1\xaa\x07\xca\xd5?'
p160
tp161
Rp162
tp163
sg43
F1.0
sg44
(dp164
I0
(lp165
(S'evanwalker85'
p166
F0.013106282298735783
tp167
a(S'institute'
p168
F0.012794969180000965
tp169
a(S'mediamjwalker'
p170
F0.00874789863644835
tp171
a(S'moweather'
p172
F0.00874789863644835
tp173
a(S'happy'
p174
F0.007502646161509082
tp175
asI1
(lp176
(S'biosciences'
p177
F0.03181629136711954
tp178
a(S'research'
p179
F0.017259818192620405
tp180
a(S'people'
p181
F0.009833046164814722
tp182
a(S'atkellyskitchen'
p183
F0.008941833521478041
tp184
a(S'mojiweather'
p185
F0.007159408234804677
tp186
asI2
(lp187
(S'foodtweeks'
p188
F0.047463319780801434
tp189
a(S'food'
p190
F0.017412055859996056
tp191
a(S'women'
p192
F0.017412055859996056
tp193
a(S'kellylebrock'
p194
F0.012992752342230561
tp195
a(S'foodtweeks4foodbanks'
p196
F0.010046549997053563
tp197
assg79
(lp198
S'#topnewfollowers'
p199
aS'#stemwomen'
p200
aS'#stem'
p201
asg84
g87
sg88
(lp202
V@EvanWalker85
p203
aV@LabTVCuriosity
p204
aV@MediaMJWalker
p205
asg93
(lp206
V@solophoto79
p207
aV@BeClub_official
p208
aV@LabTVCuriosity
p209
asg98
S'0-6'
p210
sg100
g210
sa(dp211
g26
I0
sg27
I2
sg28
(g29
(g33
S'z\xb1\x9c\xff.\xa0\x16@'
p212
tp213
Rp214
g29
(g33
S'\xe0?\xbf\xfc\x14z\xd8?'
p215
tp216
Rp217
tp218
sg43
F1.0
sg44
(dp219
I0
(lp220
(S'views'
p221
F0.019732051842143473
tp222
a(S'shawl'
p223
F0.019003931847968437
tp224
a(S'30'
p225
F0.017547691859618367
tp226
a(S'stick'
p227
F0.017547691859618367
tp228
a(S'decorative'
p229
F0.01681957186544333
tp230
asI1
(lp231
(S'bizblaster1'
p232
F0.06002425222311993
tp233
a(S'jabber'
p234
F0.04452977634060861
tp235
a(S'promotesy'
p236
F0.03509835623821042
tp237
a(S'wood'
p238
F0.023645917542441188
tp239
a(S'mycheapjobsjim'
p240
F0.021624898949070145
tp241
asI2
(lp242
(S'duck'
p243
F0.055311501597443614
tp244
a(S'likes'
p245
F0.040668264110755775
tp246
a(S'jabberduck'
p247
F0.030684238551650433
tp248
a(S'felberjosh'
p249
F0.02735623003194865
tp250
a(S'stick'
p251
F0.021365814696485443
tp252
assg79
(lp253
S'#youtube'
p254
aS'#women'
p255
aS'#vital'
p256
asg84
g87
sg88
(lp257
V@gokohakixivo
p258
aV@lycyvesavis
p259
asg93
(lp260
V@Promotesy
p261
aV@BizBlaster1
p262
aV@silkdynastystx
p263
asg98
S'0-7'
p264
sg100
g264
sa(dp265
g26
I0
sg27
I22
sg28
(g29
(g33
S'0\xe1L\x1d\x0fX\x16@'
p266
tp267
Rp268
g29
(g33
S'V\xe2F\xc2\x8f\xb7\xd5?'
p269
tp270
Rp271
tp272
sg43
F0.8285714285714286
sg44
(dp273
I0
(lp274
(S'data'
p275
F0.014354990267804318
tp276
a(S'today'
p277
F0.011166856836030126
tp278
a(S'jonathansalem'
p279
F0.010160077857575119
tp280
a(S'tech'
p281
F0.00890160413450636
tp282
a(S'bkite'
p283
F0.008649909389892607
tp284
asI1
(lp285
(S'claim'
p286
F0.013030109550374007
tp287
a(S'social'
p288
F0.010677800927482503
tp289
a(S'ty'
p290
F0.010341756838498002
tp291
a(S'photo'
p292
F0.009249613549298376
tp293
a(S'innovation'
p294
F0.007401371059883624
tp295
asI2
(lp296
(S'startup'
p297
F0.029476274989119203
tp298
a(S'startupblink'
p299
F0.019932692629677028
tp300
a(S'iphone'
p301
F0.014156313833172555
tp302
a(S'great'
p303
F0.009217091383987571
tp304
a(S'startups'
p305
F0.00846365067140003
tp306
assg79
(lp307
S'#startup'
p308
aS'#bigdata'
p309
aS'#startups'
p310
asg84
g87
sg88
(lp311
V@paulballen
p312
aV@michaelchasen
p313
aV@_sunilrawat
p314
asg93
(lp315
V@Forbes
p316
aV@HarvardBiz
p317
aV@pmarca
p318
asg98
S'0-0'
p319
sg100
g319
sa(dp320
g26
I0
sg27
I30
sg28
(g29
(g33
S'\xc7l"\xb7C\x87\x16@'
p321
tp322
Rp323
g29
(g33
S'\xed\x0c\xbcR\x83\xe9\xd6?'
p324
tp325
Rp326
tp327
sg43
F0.9333333333333333
sg44
(dp328
I0
(lp329
(S'info'
p330
F0.014691295348929198
tp331
a(S'time'
p332
F0.01109852774632025
tp333
a(S'experience'
p334
F0.010629905885110386
tp335
a(S'app'
p336
F0.01000507673683057
tp337
a(S'startup'
p338
F0.009536454875620708
tp339
asI1
(lp340
(S'andolasoft'
p341
F0.015207054903077567
tp342
a(S'marketing'
p343
F0.013987889624904593
tp344
a(S'sxsw'
p345
F0.010980615272077922
tp346
a(S'interactive'
p347
F0.01033039379038567
tp348
a(S'revelgame'
p349
F0.009842727679116479
tp350
asI2
(lp351
(S'social'
p352
F0.015368446582320632
tp353
a(S'make'
p354
F0.014479162456042216
tp355
a(S'meet'
p356
F0.009224301709851574
tp357
a(S'mobile'
p358
F0.007688265491734308
tp359
a(S'brsxsw'
p360
F0.007203201422855172
tp361
assg79
(lp362
S'#mobile'
p363
aS'#marketing'
p364
aS'#startup'
p365
asg84
g87
sg88
(lp366
V@LenseAndCo
p367
aV@BKohlmann
p368
aV@Gadgetpax
p369
asg93
(lp370
V@mashable
p371
aV@YouTube
p372
aV@TechCrunch
p373
asg98
S'0-1'
p374
sg100
g374
sa(dp375
g26
I0
sg27
I19
sg28
(g29
(g33
S'\x97\n+\xa1Nh\x16@'
p376
tp377
Rp378
g29
(g33
S'\x01\x1c\xb5\xef\x0f\xfc\xd7?'
p379
tp380
Rp381
tp382
sg43
F0.9415204678362573
sg44
(dp383
I0
(lp384
(S'kabutoapp'
p385
F0.034029425723779046
tp386
a(S'cryptanium'
p387
F0.013779465274482356
tp388
a(S'great'
p389
F0.010457206138269618
tp390
a(S'collaboration'
p391
F0.009666192058218968
tp392
a(S'security'
p393
F0.007925961082107533
tp394
asI1
(lp395
(S'intertrusttech'
p396
F0.017604732970899213
tp397
a(S'intertrust'
p398
F0.011848417013112005
tp399
a(S'synctv'
p400
F0.008490566037736133
tp401
a(S'video'
p402
F0.008170770706747954
tp403
a(S'free'
p404
F0.006891589382795242
tp405
asI2
(lp406
(S'marlin'
p407
F0.010090834021470178
tp408
a(S'world'
p409
F0.0064574731626756785
tp410
a(S'apple'
p411
F0.0064574731626756785
tp412
a(S'news'
p413
F0.006127167630057997
tp414
a(S'check'
p415
F0.005962014863749156
tp416
assg79
(lp417
S'#kabutoapp'
p418
aS'#cloud'
p419
aS'#apple'
p420
asg84
g87
sg88
(lp421
V@IntertrustTech
p422
aV@MagentaElephant
p423
aV@Kabutoapp
p424
asg93
(lp425
V@Kabutoapp
p426
aV@IntertrustTech
p427
aV@TechCrunch
p428
asg98
S'0-2'
p429
sg100
g429
sa(dp430
g26
I0
sg27
I4
sg28
(g29
(g33
S'_7\x9c(\x99\xb2\x16@'
p431
tp432
Rp433
g29
(g33
S'\xff\xe3\xcc83m\xdc?'
p434
tp435
Rp436
tp437
sg43
F1.0
sg44
(dp438
I0
(lp439
(S'video'
p440
F0.03609041870023142
tp441
a(S'amy'
p442
F0.023246853326483585
tp443
a(S'10grand'
p444
F0.02067814025173402
tp445
a(S'amylynnwhitcomb'
p446
F0.01810942717698445
tp447
a(S'day'
p448
F0.01810942717698445
tp449
asI1
(lp450
(S'topblip'
p451
F0.053140736814206564
tp452
a(S'vote'
p453
F0.034587861118473597
tp454
a(S'check'
p455
F0.031937450304797464
tp456
a(S'stadiumoffire'
p457
F0.02133580705009291
tp458
a(S'amylynnwhitcomb'
p459
F0.013384574609064495
tp460
asI2
(lp461
(S'scottlazerson'
p462
F0.05423280423280455
tp463
a(S'amylynnwhitcomb'
p464
F0.045815295815296087
tp465
a(S'love'
p466
F0.020562770562770685
tp467
a(S'time'
p468
F0.012145262145262216
tp469
a(S'wait'
p470
F0.012145262145262216
tp471
assg79
(lp472
S'#thevoice'
p473
aS'#teamadam'
p474
aS'#yummy'
p475
asg84
g87
sg88
(lp476
V@AmyLynnWhitcomb
p477
aV@AmysMomLynn
p478
aV@AndreaRWhitcomb
p479
asg93
(lp480
V@NBCTheVoice
p481
aV@AmyLynnWhitcomb
p482
aV@MidasWhale
p483
asg98
S'0-3'
p484
sg100
g484
sa(dp485
g26
I1
sg27
I44
sg28
(g29
(g33
S'("\xf6\xebgw\x16@'
p486
tp487
Rp488
g29
(g33
S'Lp\x05t\xbe\xf6\xd6?'
p489
tp490
Rp491
tp492
sg43
F0.9355179704016914
sg44
(dp493
I0
(lp494
(S'app'
p495
F0.015572783693463032
tp496
a(S'marketing'
p497
F0.009812773730202796
tp498
a(S'data'
p499
F0.006803038794445196
tp500
a(S'meet'
p501
F0.006387902941237251
tp502
a(S'twitter'
p503
F0.005972767088029306
tp504
asI1
(lp505
(S'mobile'
p506
F0.022849167267822715
tp507
a(S'revelgame'
p508
F0.0068531819464917815
tp509
a(S'make'
p510
F0.0068009074846573665
tp511
a(S'startup'
p512
F0.006591809637319707
tp513
a(S'facebook'
p514
F0.006539535175485292
tp515
asI2
(lp516
(S'time'
p517
F0.010996552934133822
tp518
a(S'info'
p519
F0.009706483373583163
tp520
a(S'sxsw'
p521
F0.008674427725142635
tp522
a(S'great'
p523
F0.008003591553656292
tp524
a(S'interactive'
p525
F0.007384358164591975
tp526
assg79
(lp527
S'#mobile'
p528
aS'#marketing'
p529
aS'#startup'
p530
asg84
g29
(g33
S'\xf9\x1fO\x891\xad\xd0?'
p531
tp532
Rp533
sg88
(lp534
V@InMobi
p535
aV@vincenttessier
p536
aV@mobpw
p537
asg93
(lp538
V@mashable
p539
aV@TechCrunch
p540
aV@Forbes
p541
asg98
S'1-1'
p542
sg100
S'1-1'
p543
sa(dp544
g26
I1
sg27
I22
sg28
(g29
(g33
S'0\xe1L\x1d\x0fX\x16@'
p545
tp546
Rp547
g29
(g33
S'V\xe2F\xc2\x8f\xb7\xd5?'
p548
tp549
Rp550
tp551
sg43
F0.8285714285714286
sg44
(dp552
I0
(lp553
(S'startup'
p554
F0.030096074945297674
tp555
a(S'startupblink'
p556
F0.021463006017507086
tp557
a(S'claim'
p558
F0.011376846280088384
tp559
a(S'app'
p560
F0.009496375820569643
tp561
a(S'great'
p562
F0.009410899890591518
tp563
asI1
(lp564
(S'ty'
p565
F0.014051424368063132
tp566
a(S'innovation'
p567
F0.0076986090678085334
tp568
a(S'people'
p569
F0.007531429717801834
tp570
a(S'data'
p571
F0.006611943292764984
tp572
a(S'google'
p573
F0.005776046542731484
tp574
asI2
(lp575
(S'iphone'
p576
F0.013803985064270958
tp577
a(S'social'
p578
F0.011408320391237696
tp579
a(S'today'
p580
F0.010830056504643462
tp581
a(S'jonathansalem'
p582
F0.010003965238080269
tp583
a(S'bkite'
p584
F0.009673528731454991
tp585
assg79
(lp586
S'#startup'
p587
aS'#bigdata'
p588
aS'#startups'
p589
asg84
g533
sg88
(lp590
V@paulballen
p591
aV@michaelchasen
p592
aV@_sunilrawat
p593
asg93
(lp594
V@Forbes
p595
aV@HarvardBiz
p596
aV@pmarca
p597
asg98
S'1-0'
p598
sg100
S'1-0'
p599
sa(dp600
g26
I1
sg27
I5
sg28
(g29
(g33
S'\xf5e\x00\xa8\xe3s\x16@'
p601
tp602
Rp603
g29
(g33
S'\x01@\xf1\xaa\x07\xca\xd5?'
p604
tp605
Rp606
tp607
sg43
F1.0
sg44
(dp608
I0
(lp609
(S'foodtweeks'
p610
F0.048623687069901105
tp611
a(S'food'
p612
F0.01783773994929333
tp613
a(S'women'
p614
F0.01451768682844347
tp615
a(S'institute'
p616
F0.012103102740552665
tp617
a(S'hungry'
p618
F0.009084872630689158
tp619
asI1
(lp620
(S'evanwalker85'
p621
F0.01141468217340447
tp622
a(S'research'
p623
F0.010799335425512046
tp624
a(S'follow'
p625
F0.010799335425512046
tp626
a(S'make'
p627
F0.0064919081902650765
tp628
a(S'love'
p629
F0.005876561442372652
tp630
asI2
(lp631
(S'biosciences'
p632
F0.026428487621728863
tp633
a(S'kellylebrock'
p634
F0.015868825530916
tp635
a(S'foodtweeks4foodbanks'
p636
F0.009709022644608496
tp637
a(S'great'
p638
F0.008829050803707423
tp639
a(S'dcbygbounce'
p640
F0.008242402909773376
tp641
assg79
(lp642
S'#topnewfollowers'
p643
aS'#stemwomen'
p644
aS'#stem'
p645
asg84
g533
sg88
(lp646
V@EvanWalker85
p647
aV@LabTVCuriosity
p648
aV@MediaMJWalker
p649
asg93
(lp650
V@solophoto79
p651
aV@BeClub_official
p652
aV@LabTVCuriosity
p653
asg98
S'1-3'
p654
sg100
S'1-3'
p655
sa(dp656
g26
I1
sg27
I48
sg28
(g29
(g33
S'"\xaf\x0fR\xf9n\x16@'
p657
tp658
Rp659
g29
(g33
S'\xb9\xdd@O\x05*\xd9?'
p660
tp661
Rp662
tp663
sg43
F0.7039007092198581
sg44
(dp664
I0
(lp665
(S'intertrust'
p666
F0.007437306459985842
tp667
a(S'intertrusttech'
p668
F0.007079313369252469
tp669
a(S'tv'
p670
F0.0060948323697356905
tp671
a(S'good'
p672
F0.00555784273363563
tp673
a(S'check'
p674
F0.0053788461882689435
tp675
asI1
(lp676
(S'kabutoapp'
p677
F0.019532526969599298
tp678
a(S'time'
p679
F0.008817333188043197
tp680
a(S'personagraph'
p681
F0.008363299553231498
tp682
a(S'marlin'
p683
F0.005911517925248323
tp684
a(S'google'
p685
F0.005820711198285983
tp686
asI2
(lp687
(S'mobile'
p688
F0.011607207077609963
tp689
a(S'great'
p690
F0.010708120549522438
tp691
a(S'video'
p692
F0.009359490757391148
tp693
a(S'day'
p694
F0.007471409048407342
tp695
a(S'world'
p696
F0.006752139825937322
tp697
assg79
(lp698
S'#kabutoapp'
p699
aS'#apple'
p700
aS'#privacy'
p701
asg84
g533
sg88
(lp702
V@IntertrustTech
p703
aV@MagentaElephant
p704
aV@drewwhitcomb
p705
asg93
(lp706
V@personagraph
p707
aV@TechCrunch
p708
aV@Kabutoapp
p709
asg98
S'1-2'
p710
sg100
S'1-2'
p711
sa(dp712
g26
I0
sg27
I2
sg28
(g29
(g33
S'\xf9":\xdf\xf2\x0c\x16@'
p713
tp714
Rp715
g29
(g33
S'\x9a\x04X\x1c\r\xcb\xd6?'
p716
tp717
Rp718
tp719
sg43
F1.0
sg44
(dp720
I0
(lp721
(S'mobilemarketing'
p722
F0.013131576658839898
tp723
a(S'good'
p724
F0.01226193582050613
tp725
a(S'mwc14'
p726
F0.011392294982172362
tp727
a(S'london'
p728
F0.010522654143838593
tp729
a(S'juice'
p730
F0.009653013305504825
tp731
asI1
(lp732
(S'mobile'
p733
F0.06156121098918181
tp734
a(S'masterclassing'
p735
F0.019534594131838983
tp736
a(S'hjd1984'
p737
F0.011751887306405124
tp738
a(S'marketing'
p739
F0.010973616623861739
tp740
a(S'week'
p741
F0.007860533893688196
tp742
asI2
(lp743
(S'app'
p744
F0.0152884534166737
tp745
a(S'time'
p746
F0.011909789678182273
tp747
a(S'ios'
p748
F0.011065123743559417
tp749
a(S'facebook'
p750
F0.009375791874313704
tp751
a(S'cycling'
p752
F0.007686460005067992
tp753
assg79
(lp754
S'#tourdefrance'
p755
aS'#plantur39'
p756
aS'#mobile'
p757
asg84
g87
sg88
(lp758
V@mobilenews101
p759
aV@hjd1984
p760
asg93
(lp761
V@JoeFoley84
p762
aV@MMMagTweets
p763
aV@iamjonjackson
p764
asg98
S'0-8'
p765
sg100
g765
sa(dp766
g26
I2
sg27
I119
sg28
(g29
(g33
S'\xbb#+\xf1\xfcl\x16@'
p767
tp768
Rp769
g29
(g33
S'\xc9l\xd0l\xac.\xd7?'
p770
tp771
Rp772
tp773
sg43
F0.7337389540779371
sg44
(dp774
I0
(lp775
(S'time'
p776
F0.009501396666950126
tp777
a(S'social'
p778
F0.008621428797059233
tp779
a(S'good'
p780
F0.006477917319119879
tp781
a(S'google'
p782
F0.0063199743681138214
tp783
a(S'people'
p784
F0.006162031417107763
tp785
asI1
(lp786
(S'app'
p787
F0.01044516010222567
tp788
a(S'startup'
p789
F0.007682840832017635
tp790
a(S'world'
p791
F0.00593112617286132
tp792
a(S'day'
p793
F0.0055718000889318185
tp794
a(S'apps'
p795
F0.005100184603774349
tp796
asI2
(lp797
(S'mobile'
p798
F0.013074929142894907
tp799
a(S'make'
p800
F0.007984877838766724
tp801
a(S'today'
p802
F0.007424299501307672
tp803
a(S'marketing'
p804
F0.0067516054963568115
tp805
a(S'twitter'
p806
F0.004890485415992761
tp807
assg79
(lp808
S'#mobile'
p809
aS'#startup'
p810
aS'#marketing'
p811
asg84
g29
(g33
S'\x00\x00\x00\x00\x00\x00\x00\x00'
p812
tp813
Rp814
sg88
(lp815
V@LabTVCuriosity
p816
aV@EvanWalker85
p817
aV@MediaMJWalker
p818
asg93
(lp819
V@TechCrunch
p820
aV@mashable
p821
aV@Forbes
p822
asg98
S'2-0'
p823
sg100
S'2-0'
p824
sasS'root'
p825
(dp826
S'id_'
p827
I961038631
sS'description'
p828
VExpand your customer understanding
p829
sS'friends_count'
p830
I86
sS'followers_count'
p831
I129
sS'name_'
p832
VPersonagraph
p833
sS'screen_name'
p834
Vpersonagraph
p835
ss.