(dp0
S'directed'
p1
I01
sS'links'
p2
(lp3
(dp4
S'source'
p5
I0
sS'target'
p6
I10
sS'value'
p7
I1
sa(dp8
g5
I1
sg6
I10
sg7
I1
sa(dp9
g5
I2
sg6
I10
sg7
I1
sa(dp10
g5
I3
sg6
I9
sg7
I1
sa(dp11
g5
I4
sg6
I9
sg7
I1
sa(dp12
g5
I5
sg6
I8
sg7
I1
sa(dp13
g5
I6
sg6
I11
sg7
I1
sa(dp14
g5
I7
sg6
I8
sg7
I1
sa(dp15
g5
I8
sg6
I12
sg7
I1
sa(dp16
g5
I9
sg6
I12
sg7
I1
sa(dp17
g5
I10
sg6
I12
sg7
I1
sa(dp18
g5
I11
sg6
I12
sg7
I1
sasS'multigraph'
p19
I00
sS'graph'
p20
(lp21
sS'nodes'
p22
(lp23
(dp24
S'group'
p25
I0
sS'comm_size'
p26
I14
sS'sentiment'
p27
(cnumpy.core.multiarray
scalar
p28
(cnumpy
dtype
p29
(S'f8'
p30
I0
I1
tp31
Rp32
(I3
S'<'
p33
NNNI-1
I-1
I0
tp34
bS'0\xc6K\x88=\x85\x16@'
p35
tp36
Rp37
g28
(g32
S'j\xc0\xaf\xaa!\xc8\xd7?'
p38
tp39
Rp40
tp41
sS'density'
p42
F0.8571428571428571
sS'topics'
p43
(dp44
I0
(lp45
(S'garden'
p46
F0.03199874346746007
tp47
a(S'nice'
p48
F0.012008453037096793
tp49
a(S'meet'
p50
F0.011437301881943557
tp51
a(S'socialupdate'
p52
F0.010437787360425393
tp53
a(S'world'
p54
F0.006868092640717667
tp55
asI1
(lp56
(S'digest'
p57
F0.013976644477040055
tp58
a(S'startups'
p59
F0.011438000676972234
tp60
a(S'jerry'
p61
F0.009604535710256587
tp62
a(S'time'
p63
F0.008476249576893111
tp64
a(S'social'
p65
F0.006642784610177464
tp66
asI2
(lp67
(S'y3cjks5vqe'
p68
F0.013128578277914716
tp69
a(S'gardenstory'
p70
F0.012987562399526803
tp71
a(S'design'
p72
F0.01284654652113889
tp73
a(S'stories'
p74
F0.012564514764363063
tp75
a(S'bootstrapper'
p76
F0.012564514764363063
tp77
assS'hashtags'
p78
(lp79
S'#ff'
p80
aS'#architecture'
p81
aS'#socialmedia'
p82
asS'modularity'
p83
g28
(g32
S'\xb5<\xc2\xdd\xdeg\xcf?'
p84
tp85
Rp86
sS'most_connected'
p87
(lp88
V@Ecolumberjill
p89
aV@Parthenon1
p90
aV@modarchitect
p91
asS'mentioned'
p92
(lp93
V@YouTube
p94
aV@ShareThis
p95
aV@washingtonpost
p96
asS'id'
p97
S'0-4'
p98
sS'name'
p99
g98
sa(dp100
g25
I0
sg26
I3
sg27
(g28
(g32
S'G\xd5\x06\x04\x1e\x8c\x16@'
p101
tp102
Rp103
g28
(g32
S'N\xe6:\x92\x15\xd6\xda?'
p104
tp105
Rp106
tp107
sg42
F1.0
sg43
(dp108
I0
(lp109
(S'great'
p110
F0.013708331225656114
tp111
a(S'cont'
p112
F0.013202488745004598
tp113
a(S'good'
p114
F0.011684961303050046
tp115
a(S'diy'
p116
F0.010167433861095495
tp117
a(S'kickstarter'
p118
F0.009155748899792461
tp119
asI1
(lp120
(S'solar'
p121
F0.10068218104407387
tp122
a(S'energy'
p123
F0.014562871933813665
tp124
a(S'amazon'
p125
F0.011176157530601185
tp126
a(S'china'
p127
F0.00924089215733691
tp128
a(S'remodel'
p129
F0.00924089215733691
tp130
asI2
(lp131
(S'day'
p132
F0.01776662237314795
tp133
a(S'watt'
p134
F0.0167823219646633
tp135
a(S'panels'
p136
F0.012845120330724696
tp137
a(S'power'
p138
F0.011860819922240045
tp139
a(S'check'
p140
F0.010876519513755394
tp141
assg78
(lp142
S'#solar'
p143
aS'#wind'
p144
aS'#green'
p145
asg83
g86
sg87
(lp146
V@newworldsolar2
p147
aV@theealchemist
p148
aV@kristenmnicole
p149
asg92
(lp150
V@PGE4Me
p151
aS'@<ProtectedUser>'
p152
aV@n_e_i
p153
asg97
S'0-5'
p154
sg99
g154
sa(dp155
g25
I0
sg26
I3
sg27
(g28
(g32
S'L>\xeex&9\x16@'
p156
tp157
Rp158
g28
(g32
S'\xf7t9\xc2Ck\xd8?'
p159
tp160
Rp161
tp162
sg42
F1.0
sg43
(dp163
I0
(lp164
(S'drchrono'
p165
F0.019000488758553036
tp166
a(S'health'
p167
F0.019000488758553036
tp168
a(S'blog'
p169
F0.01594574780058631
tp170
a(S'email'
p171
F0.011058162267839549
tp172
a(S'ehr'
p173
F0.009225317693059513
tp174
asI1
(lp175
(S'start'
p176
F0.009578772013326863
tp177
a(S'business'
p178
F0.008983817229890412
tp179
a(S'world'
p180
F0.008983817229890412
tp181
a(S'mobile'
p182
F0.007198952879581058
tp183
a(S'interviewed'
p184
F0.006603998096144607
tp185
asI2
(lp186
(S'startup'
p187
F0.01646355753456736
tp188
a(S'smallbiz'
p189
F0.013534098898523347
tp190
a(S'apple'
p191
F0.01236231544410574
tp192
a(S'ipad'
p193
F0.010604640262479332
tp194
a(S'app'
p195
F0.008846965080852923
tp196
assg78
(lp197
S'#tech'
p198
aS'#teeshirts'
p199
aS'#startups'
p200
asg83
g86
sg87
(lp201
V@WeAreLogos
p202
aV@WeArePrinting
p203
aV@danielkivatinos
p204
asg92
(lp205
V@mashable
p206
aV@TechCrunch
p207
aV@projecteve1
p208
asg97
S'0-6'
p209
sg99
g209
sa(dp210
g25
I0
sg26
I2
sg27
(g28
(g32
S'x\x8d=\x180\x03\x17@'
p211
tp212
Rp213
g28
(g32
S'\xb1H"\x93\xf3G\xd3?'
p214
tp215
Rp216
tp217
sg42
F1.0
sg43
(dp218
I0
(lp219
(S'dmstartupdrinks'
p220
F0.04460119370591452
tp221
a(S'open'
p222
F0.01747151383613683
tp223
a(S'house'
p224
F0.01747151383613683
tp225
a(S'great'
p226
F0.015301139446554615
tp227
a(S'follow'
p228
F0.012045577862181293
tp229
asI1
(lp230
(S'home'
p231
F0.035919696147585674
tp232
a(S'benovator'
p233
F0.03157894736842125
tp234
a(S'today'
p235
F0.026153011394465703
tp236
a(S'weekend'
p237
F0.01638632664134573
tp238
a(S'iot'
p239
F0.013130765056972407
tp240
asI2
(lp241
(S'drakehomesiowa'
p242
F0.053749315818281664
tp243
a(S'moines'
p244
F0.016529830322933873
tp245
a(S'week'
p246
F0.0154351395730707
tp247
a(S'des'
p248
F0.01434044882320753
tp249
a(S'tomorrow'
p250
F0.01324575807334436
tp251
assg78
(lp252
S'#startup'
p253
aS'#smarthome'
p254
aS'#newhomechat'
p255
asg83
g86
sg87
(lp256
V@ToddRDrake
p257
aV@DrakeHomesIowa
p258
asg92
(lp259
V@dmStartupDrinks
p260
aV@ToddRDrake
p261
aV@ChristyADrake
p262
asg97
S'0-7'
p263
sg99
g263
sa(dp264
g25
I0
sg26
I109
sg27
(g28
(g32
S'\xd9\x83\xb0$\x1dP\x16@'
p265
tp266
Rp267
g28
(g32
S'\xad"S\x1e\xb1\xad\xdc?'
p268
tp269
Rp270
tp271
sg42
F0.7152565409446143
sg43
(dp272
I0
(lp273
(S'day'
p274
F0.010475542180918604
tp275
a(S'back'
p276
F0.005824536978570149
tp277
a(S'work'
p278
F0.005701331542746349
tp279
a(S'home'
p280
F0.004253667671816699
tp281
a(S'free'
p282
F0.0038224486464333977
tp283
asI1
(lp284
(S'good'
p285
F0.01249267348122131
tp286
a(S'today'
p287
F0.01114244593719346
tp288
a(S'year'
p289
F0.004912987040883153
tp290
a(S'people'
p291
F0.00485161306160916
tp292
a(S'tonight'
p293
F0.004575430154876191
tp294
asI2
(lp295
(S'great'
p296
F0.012189170025259518
tp297
a(S'time'
p298
F0.010439528394839491
tp299
a(S'love'
p300
F0.0074927635436057615
tp301
a(S'game'
p302
F0.006970940601199789
tp303
a(S'happy'
p304
F0.004975735233176952
tp305
assg78
(lp306
S'#construction'
p307
aS'#architecture'
p308
aS'#worldcup'
p309
asg83
g86
sg87
(lp310
V@mrostecki
p311
aV@jjacob2k9
p312
aV@beck3077
p313
asg92
(lp314
V@YouTube
p315
aV@PlanGrid
p316
aV@FastCompany
p317
asg97
S'0-0'
p318
sg99
g318
sa(dp319
g25
I0
sg26
I112
sg27
(g28
(g32
S'*\xc2\x90W2|\x16@'
p320
tp321
Rp322
g28
(g32
S'\xa6vr\x8e\xe6\xf2\xd7?'
p323
tp324
Rp325
tp326
sg42
F0.8511904761904762
sg43
(dp327
I0
(lp328
(S'great'
p329
F0.013610162385342638
tp330
a(S'safety'
p331
F0.009662700407248304
tp332
a(S'project'
p333
F0.007970930988065018
tp334
a(S'concrete'
p335
F0.0062546431715022645
tp336
a(S'job'
p337
F0.006058495992466521
tp338
asI1
(lp339
(S'today'
p340
F0.009157648888700763
tp341
a(S'work'
p342
F0.0077794485722072326
tp343
a(S'design'
p344
F0.007681005692457695
tp345
a(S'week'
p346
F0.007114959133897852
tp347
a(S'news'
p348
F0.006647355455087546
tp349
asI2
(lp350
(S'construction'
p351
F0.04211289507538622
tp352
a(S'check'
p353
F0.012647783281292449
tp354
a(S'building'
p355
F0.00996247897528556
tp356
a(S'day'
p357
F0.009742772259339541
tp358
a(S'good'
p359
F0.00654481894945861
tp360
assg78
(lp361
S'#construction'
p362
aS'#bim'
p363
aS'#architecture'
p364
asg83
g86
sg87
(lp365
V@EquipmentToday
p366
aV@RigginsConst
p367
aV@WorldofConcrete
p368
asg92
(lp369
V@ENRnews
p370
aV@YouTube
p371
aV@ConstructechMag
p372
asg97
S'0-1'
p373
sg99
g373
sa(dp374
g25
I0
sg26
I155
sg27
(g28
(g32
S'"\xf1\xc6\xd9\x18e\x16@'
p375
tp376
Rp377
g28
(g32
S'\xfc\xf4\x91c<\xe9\xd8?'
p378
tp379
Rp380
tp381
sg42
F0.8584834520318392
sg43
(dp382
I0
(lp383
(S'great'
p384
F0.014641725248780197
tp385
a(S'today'
p386
F0.00869112986318308
tp387
a(S'people'
p388
F0.007256465770217198
tp389
a(S'love'
p390
F0.007060829757540033
tp391
a(S'day'
p392
F0.006995617753314311
tp393
asI1
(lp394
(S'good'
p395
F0.010233575120076185
tp396
a(S'startup'
p397
F0.009337465214640442
tp398
a(S'make'
p399
F0.006160348277186444
tp400
a(S'cloud'
p401
F0.006160348277186444
tp402
a(S'app'
p403
F0.006127762462443326
tp404
asI2
(lp405
(S'time'
p406
F0.009392898432140527
tp407
a(S'business'
p408
F0.006875316768085934
tp409
a(S'world'
p410
F0.004606180662984096
tp411
a(S'work'
p412
F0.004523365476666511
tp413
a(S'data'
p414
F0.004324609029504305
tp415
assg78
(lp416
S'#startup'
p417
aS'#startups'
p418
aS'#cloud'
p419
asg83
g86
sg87
(lp420
V@NGLeaders
p421
aV@vanhoosear
p422
aV@LogoedTee
p423
asg92
(lp424
V@TechCrunch
p425
aV@mashable
p426
aV@Forbes
p427
asg97
S'0-2'
p428
sg99
g428
sa(dp429
g25
I0
sg26
I3
sg27
(g28
(g32
S'8\x8c\x8aT\xb5l\x16@'
p430
tp431
Rp432
g28
(g32
S'\x90\xeeUT[k\xd6?'
p433
tp434
Rp435
tp436
sg42
F1.0
sg43
(dp437
I0
(lp438
(S'project'
p439
F0.014706818615903559
tp440
a(S'installed'
p441
F0.011523524543197161
tp442
a(S'job'
p443
F0.010886865728655881
tp444
a(S'home'
p445
F0.010250206914114601
tp446
a(S'day'
p447
F0.009613548099573321
tp448
asI1
(lp449
(S'buildbetter'
p450
F0.03495133745485661
tp451
a(S'blackfishhomes'
p452
F0.026381832649812958
tp453
a(S'great'
p454
F0.02270918773336568
tp455
a(S'house'
p456
F0.0190365428169184
tp457
a(S'rgriesdale'
p458
F0.01720022035869476
tp459
asI2
(lp460
(S'blackfishhomes'
p461
F0.037886773733489955
tp462
a(S'georgieawards'
p463
F0.011223414150182786
tp464
a(S'bc'
p465
F0.00998325789049408
tp466
a(S'amazing'
p467
F0.008743101630805375
tp468
a(S'happy'
p469
F0.008123023500961021
tp470
assg78
(lp471
S'#vancouver'
p472
aS'#westvancouver'
p473
aS'#westvan'
p474
asg83
g86
sg87
(lp475
V@blackfishhomes
p476
aV@rgriesdale
p477
aV@amusedcarpenter
p478
asg92
(lp479
V@blackfishhomes
p480
aV@Topnotchlog
p481
aV@Buildbetterbc
p482
asg97
S'0-3'
p483
sg99
g483
sa(dp484
g25
I1
sg26
I115
sg27
(g28
(g32
S'\xba\xf6\xe8\xba\xab{\x16@'
p485
tp486
Rp487
g28
(g32
S'\xf7\xec\xfd\xe9.\xe6\xd7?'
p488
tp489
Rp490
tp491
sg42
F0.8401220442410374
sg43
(dp492
I0
(lp493
(S'construction'
p494
F0.029579444864388137
tp495
a(S'check'
p496
F0.01248313328764601
tp497
a(S'week'
p498
F0.007208238255703534
tp499
a(S'home'
p500
F0.005865965859182458
tp501
a(S'app'
p502
F0.005559833558221511
tp503
asI1
(lp504
(S'project'
p505
F0.010299324872236901
tp506
a(S'building'
p507
F0.009895056752107537
tp508
a(S'work'
p509
F0.007826155196151383
tp510
a(S'bim'
p511
F0.00727920421009401
tp512
a(S'time'
p513
F0.007184082299475336
tp514
asI2
(lp515
(S'great'
p516
F0.013996213150905719
tp517
a(S'construction'
p518
F0.011230536848497393
tp519
a(S'today'
p520
F0.009079455279957585
tp521
a(S'job'
p522
F0.006290140718554318
tp523
a(S'day'
p524
F0.006053758128604889
tp525
assg78
(lp526
S'#construction'
p527
aS'#bim'
p528
aS'#architecture'
p529
asg83
g28
(g32
S'\x15\x1b\xd3\xc4{\xc3\xcf?'
p530
tp531
Rp532
sg87
(lp533
V@EquipmentToday
p534
aV@RigginsConst
p535
aV@WorldofConcrete
p536
asg92
(lp537
V@ENRnews
p538
aV@YouTube
p539
aV@ConstructechMag
p540
asg97
S'1-1'
p541
sg99
S'1-1'
p542
sa(dp543
g25
I1
sg26
I111
sg27
(g28
(g32
S'\xabb\x8b\xd8\nT\x16@'
p544
tp545
Rp546
g28
(g32
S'(\xa6\xb0\xc1|\x8d\xdc?'
p547
tp548
Rp549
tp550
sg42
F0.7126945126945127
sg43
(dp551
I0
(lp552
(S'great'
p553
F0.012262618207351687
tp554
a(S'game'
p555
F0.007323053484176777
tp556
a(S'awesome'
p557
F0.004793758294599264
tp558
a(S'happy'
p559
F0.004764001880604234
tp560
a(S'work'
p561
F0.004525950568643997
tp562
asI1
(lp563
(S'today'
p564
F0.011114754297439276
tp565
a(S'love'
p566
F0.00835200466327655
tp567
a(S'back'
p568
F0.006135732978728428
tp569
a(S'home'
p570
F0.00537673582648592
tp571
a(S'check'
p572
F0.00531601605430652
tp573
asI2
(lp574
(S'good'
p575
F0.010471936044157542
tp576
a(S'time'
p577
F0.007438316400578815
tp578
a(S'day'
p579
F0.006962454495703721
tp580
a(S'people'
p581
F0.005743058364461292
tp582
a(S'year'
p583
F0.004196507173617236
tp584
assg78
(lp585
S'#construction'
p586
aS'#worldcup'
p587
aS'#architecture'
p588
asg83
g532
sg87
(lp589
V@mrostecki
p590
aV@jjacob2k9
p591
aV@beck3077
p592
asg92
(lp593
V@YouTube
p594
aV@PlanGrid
p595
aV@TechCrunch
p596
asg97
S'1-0'
p597
sg99
S'1-0'
p598
sa(dp599
g25
I1
sg26
I20
sg27
(g28
(g32
S'\x12\xc1\xae\xaelz\x16@'
p600
tp601
Rp602
g28
(g32
S'\xe7\x98X\x7f\xdf\x86\xd8?'
p603
tp604
Rp605
tp606
sg42
F0.9210526315789473
sg43
(dp607
I0
(lp608
(S'uia2014durban'
p609
F0.011181200943805859
tp610
a(S'digest'
p611
F0.009543988057977265
tp612
a(S'y3cjks5vqe'
p613
F0.008869841575577258
tp614
a(S'hey'
p615
F0.00867722829489154
tp616
a(S'bootstrapper'
p617
F0.006076949005634364
tp618
asI1
(lp619
(S'solar'
p620
F0.021843475056429803
tp621
a(S'garden'
p622
F0.021014325855637443
tp623
a(S'great'
p624
F0.008761343221705922
tp625
a(S'meet'
p626
F0.008484960154775135
tp627
a(S'design'
p628
F0.008116449398867421
tp629
asI2
(lp630
(S'stories'
p631
F0.011236386316749837
tp632
a(S'socialupdate'
p633
F0.008837499400278908
tp634
a(S'time'
p635
F0.00835772201698472
tp636
a(S'startups'
p637
F0.0072062562970786745
tp638
a(S'world'
p639
F0.006918389867102163
tp640
assg78
(lp641
S'#ff'
p642
aS'#socialmedia'
p643
aS'#tech'
p644
asg83
g532
sg87
(lp645
V@WeAreLogos
p646
aV@WeArePrinting
p647
aV@Ecolumberjill
p648
asg92
(lp649
V@YouTube
p650
aV@ShareThis
p651
aV@washingtonpost
p652
asg97
S'1-3'
p653
sg99
S'1-3'
p654
sa(dp655
g25
I1
sg26
I155
sg27
(g28
(g32
S'"\xf1\xc6\xd9\x18e\x16@'
p656
tp657
Rp658
g28
(g32
S'\xfc\xf4\x91c<\xe9\xd8?'
p659
tp660
Rp661
tp662
sg42
F0.8584834520318392
sg43
(dp663
I0
(lp664
(S'great'
p665
F0.014143872889250314
tp666
a(S'time'
p667
F0.009256000677782632
tp668
a(S'good'
p669
F0.008799799271378982
tp670
a(S'people'
p671
F0.00715421562685153
tp672
a(S'day'
p673
F0.007105336904736853
tp674
asI1
(lp675
(S'awesome'
p676
F0.005221393010170574
tp677
a(S'free'
p678
F0.004808438801836932
tp679
a(S'week'
p680
F0.004032084890169684
tp681
a(S'live'
p682
F0.0039494940485029556
tp683
a(S'life'
p684
F0.0039494940485029556
tp685
asI2
(lp686
(S'startup'
p687
F0.007537466652715594
tp688
a(S'check'
p689
F0.006883598367943042
tp690
a(S'business'
p691
F0.006801864832346473
tp692
a(S'app'
p693
F0.006295116911647745
tp694
a(S'mobile'
p695
F0.005314314484488917
tp696
assg78
(lp697
S'#startup'
p698
aS'#startups'
p699
aS'#cloud'
p700
asg83
g532
sg87
(lp701
V@NGLeaders
p702
aV@vanhoosear
p703
aV@LogoedTee
p704
asg92
(lp705
V@TechCrunch
p706
aV@mashable
p707
aV@Forbes
p708
asg97
S'1-2'
p709
sg99
S'1-2'
p710
sa(dp711
g25
I2
sg26
I401
sg27
(g28
(g32
S':\x11\xa7\x9b\xb8h\x16@'
p712
tp713
Rp714
g28
(g32
S'\xe8F~\xc0/\x8d\xd9?'
p715
tp716
Rp717
tp718
sg42
F0.7167830423940149
sg43
(dp719
I0
(lp720
(S'day'
p721
F0.009084530167132105
tp722
a(S'love'
p723
F0.006367674253820396
tp724
a(S'make'
p725
F0.005538099929145065
tp726
a(S'year'
p727
F0.005413663780443765
tp728
a(S'app'
p729
F0.005144052124924282
tp730
asI1
(lp731
(S'great'
p732
F0.013724225248142187
tp733
a(S'good'
p734
F0.010081175159650369
tp735
a(S'today'
p736
F0.00948779957705511
tp737
a(S'check'
p738
F0.0068038100232230714
tp739
a(S'people'
p740
F0.0055066634008055304
tp741
asI2
(lp742
(S'construction'
p743
F0.013356101387265635
tp744
a(S'time'
p745
F0.009017676478455791
tp746
a(S'project'
p747
F0.00457512937183451
tp748
a(S'startup'
p749
F0.004214172419421531
tp750
a(S'news'
p751
F0.003915688785695414
tp752
assg78
(lp753
S'#construction'
p754
aS'#startup'
p755
aS'#architecture'
p756
asg83
g28
(g32
S'\x00\x00\x00\x00\x00\x00\x00\x00'
p757
tp758
Rp759
sg87
(lp760
V@NGLeaders
p761
aV@WeAreLogos
p762
aV@RigginsConst
p763
asg92
(lp764
V@TechCrunch
p765
aV@YouTube
p766
aV@Forbes
p767
asg97
S'2-0'
p768
sg99
S'2-0'
p769
sasS'root'
p770
(dp771
S'id_'
p772
I465120948
sS'description'
p773
VThe construction app that works for you.
p774
sS'friends_count'
p775
I211
sS'followers_count'
p776
I438
sS'name_'
p777
VPlanGrid
p778
sS'screen_name'
p779
VPlanGrid
p780
ss.