(dp0
S'directed'
p1
I01
sS'links'
p2
(lp3
(dp4
S'source'
p5
I0
sS'target'
p6
I8
sS'value'
p7
I1
sa(dp8
g5
I2
sg6
I7
sg7
I1
sa(dp9
g5
I3
sg6
I6
sg7
I1
sa(dp10
g5
I4
sg6
I8
sg7
I1
sa(dp11
g5
I5
sg6
I8
sg7
I1
sa(dp12
g5
I6
sg6
I1
sg7
I1
sa(dp13
g5
I7
sg6
I1
sg7
I1
sa(dp14
g5
I8
sg6
I1
sg7
I1
sasS'multigraph'
p15
I00
sS'graph'
p16
(lp17
sS'nodes'
p18
(lp19
(dp20
S'group'
p21
I0
sS'comm_size'
p22
I3
sS'sentiment'
p23
(cnumpy.core.multiarray
scalar
p24
(cnumpy
dtype
p25
(S'f8'
p26
I0
I1
tp27
Rp28
(I3
S'<'
p29
NNNI-1
I-1
I0
tp30
bS';\x11=S\xb9\x08\x16@'
p31
tp32
Rp33
g24
(g28
S'\xdeh)>\x99\x1e\xda?'
p34
tp35
Rp36
tp37
sS'density'
p38
F1.0
sS'topics'
p39
(dp40
I0
(lp41
(S'twitter'
p42
F0.031618997638415317
tp43
a(S'medallia'
p44
F0.021123064812385337
tp45
a(S'account'
p46
F0.019811073209131586
tp47
a(S'job'
p48
F0.01325111519286285
tp49
a(S'5000'
p50
F0.011939123589609102
tp51
asI1
(lp52
(S'followers'
p53
F0.033509454949944596
tp54
a(S'im'
p55
F0.011262513904338224
tp56
a(S'check'
p57
F0.011262513904338224
tp58
a(S'dont'
p59
F0.009872080088987826
tp60
a(S'time'
p61
F0.009872080088987826
tp62
asI2
(lp63
(S'5000'
p64
F0.014848573948838673
tp65
a(S'check'
p66
F0.011908262275801312
tp67
a(S'hours'
p68
F0.00896795060276395
tp69
a(S'ucla'
p70
F0.00749779476624527
tp71
a(S'today'
p72
F0.00749779476624527
tp73
assS'hashtags'
p74
(lp75
S'#gobruins'
p76
aS'#worldcup'
p77
aS'#winning'
p78
asS'modularity'
p79
g24
(g28
S'EQ\x1c8{\xcd\xd0?'
p80
tp81
Rp82
sS'most_connected'
p83
(lp84
V@JustinManduke
p85
aV@evanseder8
p86
aV@camisetasbrasil
p87
asS'mentioned'
p88
(lp89
V@clarisselarued
p90
aV@DC2forlife
p91
aV@RealHumanPraise
p92
asS'id'
p93
S'0-4'
p94
sS'name'
p95
g94
sa(dp96
g21
I2
sg22
I20
sg23
(g24
(g28
S'$\x87\xb5\x17\xe5\x19\x16@'
p97
tp98
Rp99
g24
(g28
S'\x0f\x89\xefQ\xd0\xea\xd9?'
p100
tp101
Rp102
tp103
sg38
F0.7210526315789474
sg39
(dp104
I0
(lp105
(S'love'
p106
F0.008986236271028498
tp107
a(S'people'
p108
F0.008733458879438384
tp109
a(S'kansascitystar'
p110
F0.006332073659332318
tp111
a(S'good'
p112
F0.006332073659332318
tp113
a(S'year'
p114
F0.006205684963537262
tp115
asI1
(lp116
(S'data'
p117
F0.023388702675293072
tp118
a(S'miylgice9s'
p119
F0.021533438052715622
tp120
a(S'time'
p121
F0.009412375851876272
tp122
a(S'day'
p123
F0.008051848461986139
tp124
a(S'great'
p125
F0.00743342692112699
tp126
asI2
(lp127
(S'zipfianacademy'
p128
F0.013197475710757281
tp129
a(S'science'
p130
F0.008205220107270046
tp131
a(S'today'
p132
F0.0062851217982364945
tp133
a(S'twitter'
p134
F0.005645089028558644
tp135
a(S'learning'
p136
F0.0051330628128163636
tp137
assg74
(lp138
S'#bigdata'
p139
aS'#sfdatascience'
p140
aS'#datascience'
p141
asg79
g24
(g28
S'\x00\x00\x00\x00\x00\x00\x00\x00'
p142
tp143
Rp144
sg83
(lp145
V@ZipfianAcademy
p146
aV@ryanorban
p147
aV@CDO_SQUARED
p148
asg88
(lp149
V@Uber
p150
aV@ZipfianAcademy
p151
aV@Saber_Metrics
p152
asg93
S'2-0'
p153
sg95
S'2-0'
p154
sa(dp155
g21
I0
sg22
I6
sg23
(g24
(g28
S'\\a#\xeaI \x16@'
p156
tp157
Rp158
g24
(g28
S'\xbd\xa8\x1ah\xfe\xdc\xd9?'
p159
tp160
Rp161
tp162
sg38
F1.0
sg39
(dp163
I0
(lp164
(S'time'
p165
F0.011703906368748853
tp166
a(S'game'
p167
F0.008663930688554346
tp168
a(S'free'
p169
F0.007143942848457091
tp170
a(S'win'
p171
F0.00663728023509134
tp172
a(S'srinivas2088'
p173
F0.005117292394994087
tp174
asI1
(lp175
(S'fans'
p176
F0.00644062383563091
tp177
a(S'acjachemem'
p178
F0.00644062383563091
tp179
a(S'good'
p180
F0.00644062383563091
tp181
a(S'language'
p182
F0.005908340874008521
tp183
a(S'guy'
p184
F0.005908340874008521
tp185
asI2
(lp186
(S'people'
p187
F0.010619749564114572
tp188
a(S'work'
p189
F0.009563058065197699
tp190
a(S'love'
p191
F0.007449675067363953
tp192
a(S'home'
p193
F0.0069213293179055165
tp194
a(S'good'
p195
F0.0069213293179055165
tp196
assg74
(lp197
S'#lfc'
p198
aS'#udistrictstreetfair'
p199
aS'#seattle'
p200
asg79
g82
sg83
(lp201
V@justmytwospence
p202
aV@poya_yov
p203
aV@KRDooley
p204
asg88
(lp205
V@wordpressdotcom
p206
aV@usfmanagement
p207
aV@electionexpress
p208
asg93
S'0-0'
p209
sg95
g209
sa(dp210
g21
I0
sg22
I5
sg23
(g24
(g28
S"G\x8a\xbb\xd7g'\x16@"
p211
tp212
Rp213
g24
(g28
S'_\xf4\xed\x7f\xa6\x92\xd6?'
p214
tp215
Rp216
tp217
sg38
F1.0
sg39
(dp218
I0
(lp219
(S'data'
p220
F0.020772517662985594
tp221
a(S'zipfianacademy'
p222
F0.012734272538816017
tp223
a(S'great'
p224
F0.009349748276007774
tp225
a(S'good'
p226
F0.008926682743156743
tp227
a(S'learn'
p228
F0.008503617210305712
tp229
asI1
(lp230
(S'data'
p231
F0.05356048535359621
tp232
a(S'learning'
p233
F0.013931445847121518
tp234
a(S'ryanorban'
p235
F0.01188871185194241
tp236
a(S'scientist'
p237
F0.010663071454834945
tp238
a(S'fellowship'
p239
F0.007394697062548371
tp240
asI2
(lp241
(S'zipfianacademy'
p242
F0.02786627414606549
tp243
a(S'science'
p244
F0.02060733153203975
tp245
a(S'love'
p246
F0.010525466790337328
tp247
a(S'machine'
p248
F0.010122192200669232
tp249
a(S'sfdatascience'
p250
F0.009718917611001134
tp251
assg74
(lp252
S'#bigdata'
p253
aS'#sfdatascience'
p254
aS'#datascience'
p255
asg79
g82
sg83
(lp256
V@ZipfianAcademy
p257
aV@ryanorban
p258
aV@kf
p259
asg88
(lp260
V@ZipfianAcademy
p261
aV@adailyventure
p262
aV@Uber
p263
asg93
S'0-1'
p264
sg95
g264
sa(dp265
g21
I0
sg22
I3
sg23
(g24
(g28
S'\xe2\xac}\x86\x8d\xd5\x15@'
p266
tp267
Rp268
g24
(g28
S'GY\x95.Nm\xdb?'
p269
tp270
Rp271
tp272
sg38
F1.0
sg39
(dp273
I0
(lp274
(S'great'
p275
F0.012274275432170027
tp276
a(S'people'
p277
F0.012274275432170027
tp278
a(S'man'
p279
F0.006490585437953784
tp280
a(S'mcculloughsl'
p281
F0.003920056551635453
tp282
a(S'sox'
p283
F0.003920056551635453
tp284
asI1
(lp285
(S'day'
p286
F0.009980782344553844
tp287
a(S'time'
p288
F0.0075010848676460564
tp289
a(S'good'
p290
F0.006261236129192163
tp291
a(S'thing'
p292
F0.005641311759965216
tp293
a(S'american'
p294
F0.005641311759965216
tp295
asI2
(lp296
(S'years'
p297
F0.006184556977527326
tp298
a(S'year'
p299
F0.006184556977527326
tp300
a(S'nytimes'
p301
F0.00557222460351472
tp302
a(S'red'
p303
F0.004959892229502113
tp304
a(S'big'
p305
F0.0043475598554895065
tp306
assg74
(lp307
S'#sfbatkid'
p308
aS'#worldseries'
p309
aS'#winning'
p310
asg79
g82
sg83
(lp311
V@Belk95
p312
aV@CDO_SQUARED
p313
aV@CoolQuotz
p314
asg88
(lp315
V@dasan
p316
aV@neelkashkari
p317
aV@conorsen
p318
asg93
S'0-2'
p319
sg95
g319
sa(dp320
g21
I0
sg22
I3
sg23
(g24
(g28
S'\xfeZ\x8e\xd6xL\x16@'
p321
tp322
Rp323
g24
(g28
S'\xba\x9b;\x94o\x0c\xdc?'
p324
tp325
Rp326
tp327
sg38
F0.6666666666666666
sg39
(dp328
I0
(lp329
(S'sacramento'
p330
F0.019991000835636492
tp331
a(S'bee'
p332
F0.011634633926849535
tp333
a(S'oc'
p334
F0.009063444108761238
tp335
a(S'world'
p336
F0.008420646654239165
tp337
a(S'happy'
p338
F0.007777849199717092
tp339
asI1
(lp340
(S'orlando'
p341
F0.016549086833256278
tp342
a(S'youtube'
p343
F0.01061515131535562
tp344
a(S'flyeaglesfly'
p345
F0.00995582514669999
tp346
a(S'love'
p347
F0.00995582514669999
tp348
a(S'women'
p349
F0.009296498978044361
tp350
asI2
(lp351
(S'miylgice9s'
p352
F0.10350534964828141
tp353
a(S'kansascitystar'
p354
F0.03611751492581379
tp355
a(S'eagles'
p356
F0.023112845067091967
tp357
a(S'dispatch'
p358
F0.021339480995448083
tp359
a(S'columbus'
p360
F0.021339480995448083
tp361
assg74
(lp362
S'#sdcc'
p363
aS'#flyeaglesfly'
p364
aS'#eagles'
p365
asg79
g82
sg83
(lp366
V@brianjacob21
p367
aV@BigDaddyKiang
p368
aV@BusNewsZap
p369
asg88
(lp370
V@austinjwen
p371
aV@realmonaghan
p372
aV@DeSeanJackson10
p373
asg93
S'0-3'
p374
sg95
g374
sa(dp375
g21
I1
sg22
I5
sg23
(g24
(g28
S"G\x8a\xbb\xd7g'\x16@"
p376
tp377
Rp378
g24
(g28
S'_\xf4\xed\x7f\xa6\x92\xd6?'
p379
tp380
Rp381
tp382
sg38
F1.0
sg39
(dp383
I0
(lp384
(S'data'
p385
F0.06684911659355121
tp386
a(S'science'
p387
F0.02217571537811362
tp388
a(S'today'
p389
F0.007687044713647371
tp390
a(S'abortion'
p391
F0.007284581639634419
tp392
a(S'women'
p393
F0.006479655491608517
tp394
asI1
(lp395
(S'learning'
p396
F0.014408247771157878
tp397
a(S'sfdatascience'
p398
F0.01398571851100662
tp399
a(S'love'
p400
F0.011028013689947819
tp401
a(S'zipfian'
p402
F0.008492838129040274
tp403
a(S'big'
p404
F0.007647779608737759
tp405
asI2
(lp406
(S'zipfianacademy'
p407
F0.04225929417551251
tp408
a(S'ryanorban'
p409
F0.011927696028199944
tp410
a(S'machine'
p411
F0.010288150182399263
tp412
a(S'great'
p413
F0.009468377259498924
tp414
a(S'learn'
p415
F0.009468377259498924
tp416
assg74
(lp417
S'#bigdata'
p418
aS'#sfdatascience'
p419
aS'#datascience'
p420
asg79
g24
(g28
S'\x8c\xd4\x92\xaa\x01e\xd3?'
p421
tp422
Rp423
sg83
(lp424
V@ZipfianAcademy
p425
aV@ryanorban
p426
aV@kf
p427
asg88
(lp428
V@ZipfianAcademy
p429
aV@adailyventure
p430
aV@Uber
p431
asg93
S'1-1'
p432
sg95
S'1-1'
p433
sa(dp434
g21
I1
sg22
I6
sg23
(g24
(g28
S'\\a#\xeaI \x16@'
p435
tp436
Rp437
g24
(g28
S'\xbd\xa8\x1ah\xfe\xdc\xd9?'
p438
tp439
Rp440
tp441
sg38
F1.0
sg39
(dp442
I0
(lp443
(S'today'
p444
F0.007598210917712873
tp445
a(S'game'
p446
F0.007059330710782882
tp447
a(S'love'
p448
F0.007059330710782882
tp449
a(S'san'
p450
F0.0065204505038528905
tp451
a(S'acjachemem'
p452
F0.0065204505038528905
tp453
asI1
(lp454
(S'time'
p455
F0.01077245111553564
tp456
a(S'free'
p457
F0.007198652167253674
tp458
a(S'home'
p459
F0.007198652167253674
tp460
a(S'season'
p461
F0.006177566753458827
tp462
a(S'team'
p463
F0.005156481339663979
tp464
asI2
(lp465
(S'good'
p466
F0.013000466152172546
tp467
a(S'work'
p468
F0.008856891282954204
tp469
a(S'people'
p470
F0.007820997565649619
tp471
a(S'win'
p472
F0.007303050706997325
tp473
a(S'guy'
p474
F0.005749210131040448
tp475
assg74
(lp476
S'#lfc'
p477
aS'#udistrictstreetfair'
p478
aS'#seattle'
p479
asg79
g423
sg83
(lp480
V@justmytwospence
p481
aV@poya_yov
p482
aV@KRDooley
p483
asg88
(lp484
V@wordpressdotcom
p485
aV@usfmanagement
p486
aV@electionexpress
p487
asg93
S'1-0'
p488
sg95
S'1-0'
p489
sa(dp490
g21
I1
sg22
I9
sg23
(g24
(g28
S'\xd3mM\xb7A\x0f\x16@'
p491
tp492
Rp493
g24
(g28
S'\xb8\xe1\xb8\x8e\x1d\xa4\xdb?'
p494
tp495
Rp496
tp497
sg38
F0.6111111111111112
sg39
(dp498
I0
(lp499
(S'kansascitystar'
p500
F0.016292029970935252
tp501
a(S'day'
p502
F0.01069247793509826
tp503
a(S'time'
p504
F0.010425832600058403
tp505
a(S'sacramento'
p506
F0.009092605924859118
tp507
a(S'twitter'
p508
F0.008026024584699691
tp509
asI1
(lp510
(S'miylgice9s'
p511
F0.02999504860188094
tp512
a(S'columbus'
p513
F0.009668256326062406
tp514
a(S'people'
p515
F0.009147056524118341
tp516
a(S'good'
p517
F0.009147056524118341
tp518
a(S'love'
p519
F0.008104656920230211
tp520
asI2
(lp521
(S'miylgice9s'
p522
F0.015645744930101416
tp523
a(S'lol'
p524
F0.010959831307109312
tp525
a(S'dispatch'
p526
F0.009658188634055948
tp527
a(S'year'
p528
F0.009397860099445276
tp529
a(S'world'
p530
F0.0067945747533385515
tp531
assg74
(lp532
S'#sfbatkid'
p533
aS'#winning'
p534
aS'#sdcc'
p535
asg79
g423
sg83
(lp536
V@Belk95
p537
aV@CDO_SQUARED
p538
aV@evanseder8
p539
asg88
(lp540
V@BillSimmons
p541
aV@dasan
p542
aV@neelkashkari
p543
asg93
S'1-2'
p544
sg95
S'1-2'
p545
sasS'root'
p546
(dp547
S'id_'
p548
I625183821
sS'description'
p549
VUnder Construction.
p550
sS'friends_count'
p551
I54
sS'followers_count'
p552
I23
sS'name_'
p553
VDan Saber
p554
sS'screen_name'
p555
VSaber_Metrics
p556
ss.