(dp0
S'directed'
p1
I01
sS'links'
p2
(lp3
(dp4
S'source'
p5
I0
sS'target'
p6
I7
sS'value'
p7
I1
sa(dp8
g5
I1
sg6
I10
sg7
I1
sa(dp9
g5
I2
sg6
I11
sg7
I1
sa(dp10
g5
I3
sg6
I8
sg7
I1
sa(dp11
g5
I4
sg6
I7
sg7
I1
sa(dp12
g5
I5
sg6
I10
sg7
I1
sa(dp13
g5
I6
sg6
I9
sg7
I1
sa(dp14
g5
I7
sg6
I12
sg7
I1
sa(dp15
g5
I8
sg6
I12
sg7
I1
sa(dp16
g5
I9
sg6
I12
sg7
I1
sa(dp17
g5
I10
sg6
I12
sg7
I1
sa(dp18
g5
I11
sg6
I12
sg7
I1
sasS'multigraph'
p19
I00
sS'graph'
p20
(lp21
sS'nodes'
p22
(lp23
(dp24
S'group'
p25
I0
sS'comm_size'
p26
I63
sS'sentiment'
p27
(cnumpy.core.multiarray
scalar
p28
(cnumpy
dtype
p29
(S'f8'
p30
I0
I1
tp31
Rp32
(I3
S'<'
p33
NNNI-1
I-1
I0
tp34
bS'H^\x19b\xa5*\x16@'
p35
tp36
Rp37
g28
(g32
S'B\x8e \x03\xc1\xbc\xd8?'
p38
tp39
Rp40
tp41
sS'density'
p42
F0.9703020993343574
sS'topics'
p43
(dp44
I0
(lp45
(S'great'
p46
F0.010000040469607592
tp47
a(S'time'
p48
F0.008988300235936246
tp49
a(S'learning'
p50
F0.006681532503165575
tp51
a(S'awesome'
p52
F0.005953079534922205
tp53
a(S'analytics'
p54
F0.005184156957331982
tp55
asI1
(lp56
(S'python'
p57
F0.008060152545700135
tp58
a(S'people'
p59
F0.0070581445216200585
tp60
a(S'today'
p61
F0.006697421632951231
tp62
a(S'rstats'
p63
F0.006657341311988028
tp64
a(S'good'
p65
F0.006577180670061622
tp66
asI2
(lp67
(S'data'
p68
F0.040818049853424444
tp69
a(S'big'
p70
F0.009011255021330329
tp71
a(S'science'
p72
F0.004708692382854893
tp73
a(S'twitter'
p74
F0.004346794590833595
tp75
a(S'make'
p76
F0.004266372859273306
tp77
assS'hashtags'
p78
(lp79
S'#bigdata'
p80
aS'#datascience'
p81
aS'#rstats'
p82
asS'modularity'
p83
g28
(g32
S'j0npQ\xcd\xc0?'
p84
tp85
Rp86
sS'most_connected'
p87
(lp88
V@greenbacker
p89
aV@darkrho
p90
aV@alex_yakubovich
p91
asS'mentioned'
p92
(lp93
V@kdnuggets
p94
aV@peteskomoroch
p95
aV@hmason
p96
asS'id'
p97
S'0-4'
p98
sS'name'
p99
g98
sa(dp100
g25
I0
sg26
I46
sg27
(g28
(g32
S'\x0c\xb9\xa0Q\x9d1\x16@'
p101
tp102
Rp103
g28
(g32
S'\x10F \xbdB4\xd8?'
p104
tp105
Rp106
tp107
sg42
F0.9855072463768116
sg43
(dp108
I0
(lp109
(S'great'
p110
F0.010299264639894846
tp111
a(S'time'
p112
F0.009929736949073401
tp113
a(S'good'
p114
F0.008451626185787622
tp115
a(S'bigdataanalysis'
p116
F0.008029308824848827
tp117
a(S'world'
p118
F0.005337035648864013
tp119
asI1
(lp120
(S'svdatascience'
p121
F0.01448180061844317
tp122
a(S'hadoop'
p123
F0.009478900000531894
tp124
a(S'stampedecon'
p125
F0.009159565918537557
tp126
a(S'work'
p127
F0.00665811560958192
tp128
a(S'strataconf'
p129
F0.006338781527587583
tp130
asI2
(lp131
(S'data'
p132
F0.043295316133316775
tp133
a(S'big'
p134
F0.016087444832876566
tp135
a(S'bigdata'
p136
F0.008652735814733019
tp137
a(S'day'
p138
F0.007650895592429988
tp139
a(S'today'
p140
F0.006069042609846255
tp141
assg78
(lp142
S'#bigdata'
p143
aS'#strataconf'
p144
aS'#hadoopsummit'
p145
asg83
g86
sg87
(lp146
V@BigDataAnalysis
p147
aV@sanjaymathur
p148
aV@mjvacas
p149
asg92
(lp150
V@SVDataScience
p151
aV@BigDataAnalysis
p152
aV@sanjaymathur
p153
asg97
S'0-5'
p154
sg99
g154
sa(dp155
g25
I0
sg26
I2
sg27
(g28
(g32
S'fR\xa7\xfb\x1c\x9c\x16@'
p156
tp157
Rp158
g28
(g32
S'\xb0N\x86\x1eC\xb2\xe2?'
p159
tp160
Rp161
tp162
sg42
F1.0
sg43
(dp163
I0
(lp164
(S'huan'
p165
F0.16441281138790023
tp166
a(S'radiothomson'
p167
F0.12882562277580062
tp168
a(S'sevenesia'
p169
F0.07900355871886114
tp170
a(S'fm'
p171
F0.0647686832740213
tp172
a(S'qxfyfehd9s'
p173
F0.036298932384341606
tp174
asI1
(lp175
(S'np'
p176
F0.15098814229249
tp177
a(S'qxfyfehd9s'
p178
F0.07984189723320151
tp179
a(S'nextplay'
p180
F0.05612648221343868
tp181
a(S'folback'
p182
F0.04822134387351774
tp183
a(S'rehatsore'
p184
F0.04822134387351774
tp185
asI2
(lp186
(S'andrigomd'
p187
F0.1399267399267398
tp188
a(S'selamatpagisahabat'
p189
F0.11062271062271051
tp190
a(S'thomson'
p191
F0.04468864468864464
tp192
a(S'bigger'
p193
F0.03736263736263732
tp194
a(S'radiothomson'
p195
F0.02271062271062269
tp196
assg78
(lp197
S'#selamatpagisahabat'
p198
aS'#rehatsore'
p199
aS'#radiothomson'
p200
asg83
g86
sg87
(lp201
V@Huan_andrigoMD
p202
aV@THOMSON_FM
p203
asg92
(lp204
V@DYMARAofficial
p205
aV@Huan_andrigoMD
p206
aV@ParaKSATRIA
p207
asg97
S'0-6'
p208
sg99
g208
sa(dp209
g25
I0
sg26
I105
sg27
(g28
(g32
S'\xc1G\x865?\\\x16@'
p210
tp211
Rp212
g28
(g32
S'3\xef\x14\xed{\xd9\xd6?'
p213
tp214
Rp215
tp216
sg42
F0.9897435897435898
sg43
(dp217
I0
(lp218
(S'data'
p219
F0.08718793595958964
tp220
a(S'cloud'
p221
F0.008505945658670765
tp222
a(S'great'
p223
F0.007044442968177507
tp224
a(S'twitter'
p225
F0.0056892313824473935
tp226
a(S'time'
p227
F0.005450076396730314
tp228
asI1
(lp229
(S'analytics'
p230
F0.024153682670672385
tp231
a(S'hadoop'
p232
F0.013030457763483525
tp233
a(S'business'
p234
F0.010297953381816783
tp235
a(S'2014'
p236
F0.008697092228921116
tp237
a(S'world'
p238
F0.008586688011480036
tp239
asI2
(lp240
(S'bigdata'
p241
F0.05105801863193308
tp242
a(S'big'
p243
F0.04305358374233391
tp244
a(S'datascience'
p245
F0.009818953744640063
tp246
a(S'people'
p247
F0.005519274192456724
tp248
a(S'statistics'
p249
F0.005357022133883768
tp250
assg78
(lp251
S'#bigdata'
p252
aS'#analytics'
p253
aS'#datascience'
p254
asg83
g86
sg87
(lp255
V@advnturecaptlst
p256
aV@BYAnalytics_en
p257
aV@relentless_1987
p258
asg92
(lp259
V@KirkDBorne
p260
aV@kdnuggets
p261
aV@Forbes
p262
asg97
S'0-0'
p263
sg99
g263
sa(dp264
g25
I0
sg26
I40
sg27
(g28
(g32
S'BY\xc1\x10\x110\x16@'
p265
tp266
Rp267
g28
(g32
S'A\xf0\xa1\x83Pq\xd6?'
p268
tp269
Rp270
tp271
sg42
F0.9935897435897436
sg43
(dp272
I0
(lp273
(S'data'
p274
F0.04747075059230831
tp275
a(S'big'
p276
F0.012013222279212919
tp277
a(S'bigdata'
p278
F0.01038486277000073
tp279
a(S'day'
p280
F0.0050926943650611185
tp281
a(S'make'
p282
F0.004889149426409595
tp283
asI1
(lp284
(S'time'
p285
F0.008891491853901281
tp286
a(S'science'
p287
F0.007335173611394377
tp288
a(S'hadoop'
p289
F0.006925616179155719
tp290
a(S'today'
p291
F0.006679881719812523
tp292
a(S'google'
p293
F0.006188412801126133
tp294
asI2
(lp295
(S'great'
p296
F0.009820673112465945
tp297
a(S'good'
p298
F0.008588468205004722
tp299
a(S'talk'
p300
F0.006740160843812888
tp301
a(S'analytics'
p302
F0.006165131886997651
tp303
a(S'interesting'
p304
F0.004111457041228946
tp305
assg78
(lp306
S'#bigdata'
p307
aS'#hadoop'
p308
aS'#datascience'
p309
asg83
g86
sg87
(lp310
V@peteskomoroch
p311
aV@ogrisel
p312
aV@edd
p313
asg92
(lp314
V@edd
p315
aV@kdnuggets
p316
aV@cloudera
p317
asg97
S'0-1'
p318
sg99
g318
sa(dp319
g25
I0
sg26
I208
sg27
(g28
(g32
S'o\x16Mp/0\x16@'
p320
tp321
Rp322
g28
(g32
S'\x94\xa2\xdbP\x0bK\xd8?'
p323
tp324
Rp325
tp326
sg42
F0.95661464139725
sg43
(dp327
I0
(lp328
(S'good'
p329
F0.00831153727538291
tp330
a(S'data'
p331
F0.008134971549379874
tp332
a(S'great'
p333
F0.00589847235334142
tp334
a(S'make'
p335
F0.005533569852935146
tp336
a(S'world'
p337
F0.005345233078531907
tp338
asI1
(lp339
(S'data'
p340
F0.008632286468209951
tp341
a(S'today'
p342
F0.007491662864591418
tp343
a(S'work'
p344
F0.006021787086732483
tp345
a(S'people'
p346
F0.005927715036949511
tp347
a(S'read'
p348
F0.004434321246644834
tp349
asI2
(lp350
(S'great'
p351
F0.005873979012948778
tp352
a(S'google'
p353
F0.005850487795140544
tp354
a(S'time'
p355
F0.005404154656784108
tp356
a(S'back'
p357
F0.004206102548564202
tp358
a(S'cloud'
p359
F0.004029918415002451
tp360
assg78
(lp361
S'#bigdata'
p362
aS'#analytics'
p363
aS'#worldcup'
p364
asg83
g86
sg87
(lp365
V@javiergodoy
p366
aV@archerdrive
p367
aV@nitin
p368
asg92
(lp369
V@TechCrunch
p370
aV@YouTube
p371
aV@Forbes
p372
asg97
S'0-2'
p373
sg99
g373
sa(dp374
g25
I0
sg26
I45
sg27
(g28
(g32
S'~77\n\x01H\x16@'
p375
tp376
Rp377
g28
(g32
S'\x9a\xb6\xd6\xfe\xbd`\xd6?'
p378
tp379
Rp380
tp381
sg42
F0.998989898989899
sg43
(dp382
I0
(lp383
(S'analytics'
p384
F0.018209609636942535
tp385
a(S'db2'
p386
F0.0079309089254003
tp387
a(S'top'
p388
F0.00629997117412238
tp389
a(S'good'
p390
F0.005844825755161101
tp391
a(S'week'
p392
F0.005465537906026701
tp393
asI1
(lp394
(S'big'
p395
F0.017766873163543636
tp396
a(S'data'
p397
F0.011919828881435961
tp398
a(S'today'
p399
F0.006923936615078137
tp400
a(S'lt'
p401
F0.006812916786936853
tp402
a(S'marketing'
p403
F0.006738903568175996
tp404
asI2
(lp405
(S'data'
p406
F0.028553433502287527
tp407
a(S'bigdata'
p408
F0.025234582428187272
tp409
a(S'great'
p410
F0.00879118392469056
tp411
a(S'2014'
p412
F0.008451755973930306
tp413
a(S'business'
p414
F0.008414041757179167
tp415
assg78
(lp416
S'#bigdata'
p417
aS'#analytics'
p418
aS'#data'
p419
asg83
g86
sg87
(lp420
V@eric_kavanagh
p421
aV@KirkDBorne
p422
aV@williammcknight
p423
asg92
(lp424
V@Forbes
p425
aV@VentureBeat
p426
aV@KirkDBorne
p427
asg97
S'0-3'
p428
sg99
g428
sa(dp429
g25
I1
sg26
I103
sg27
(g28
(g32
S'C\x08\x18y;-\x16@'
p430
tp431
Rp432
g28
(g32
S'\x149L\xee\xbc\xab\xd7?'
p433
tp434
Rp435
tp436
sg42
F0.9777270131353513
sg43
(dp437
I0
(lp438
(S'good'
p439
F0.00996903572880473
tp440
a(S'day'
p441
F0.00561110126463366
tp442
a(S'people'
p443
F0.004714492738512339
tp444
a(S'post'
p445
F0.004318316878133151
tp446
a(S'article'
p447
F0.003984695100971729
tp448
asI1
(lp449
(S'bigdata'
p450
F0.008804979339054773
tp451
a(S'hadoop'
p452
F0.006692281403078327
tp453
a(S'python'
p454
F0.006443728704728158
tp455
a(S'check'
p456
F0.0044967325676518255
tp457
a(S'awesome'
p458
F0.003709649022876287
tp459
asI2
(lp460
(S'data'
p461
F0.046614380407821294
tp462
a(S'big'
p463
F0.010506502049281418
tp464
a(S'great'
p465
F0.01022314425947225
tp466
a(S'time'
p467
F0.009514749784949325
tp468
a(S'science'
p469
F0.007875322572481988
tp470
assg78
(lp471
S'#bigdata'
p472
aS'#datascience'
p473
aS'#python'
p474
asg83
g28
(g32
S'~\xbf0^\x89B\xc1?'
p475
tp476
Rp477
sg87
(lp478
V@peteskomoroch
p479
aV@ogrisel
p480
aV@acroll
p481
asg92
(lp482
V@kdnuggets
p483
aV@peteskomoroch
p484
aV@hmason
p485
asg97
S'1-1'
p486
sg99
S'1-1'
p487
sa(dp488
g25
I1
sg26
I105
sg27
(g28
(g32
S'\xc1G\x865?\\\x16@'
p489
tp490
Rp491
g28
(g32
S'3\xef\x14\xed{\xd9\xd6?'
p492
tp493
Rp494
tp495
sg42
F0.9897435897435898
sg43
(dp496
I0
(lp497
(S'data'
p498
F0.0887076860457026
tp499
a(S'analytics'
p500
F0.015659724577704866
tp501
a(S'datascience'
p502
F0.009038735499624832
tp503
a(S'cloud'
p504
F0.008821653890507455
tp505
a(S'hadoop'
p506
F0.005646835357165798
tp507
asI1
(lp508
(S'bigdata'
p509
F0.05084445161029069
tp510
a(S'big'
p511
F0.014567294127127841
tp512
a(S'hadoop'
p513
F0.011100810189847835
tp514
a(S'business'
p515
F0.010885834441799462
tp516
a(S'world'
p517
F0.008144893654182712
tp518
asI2
(lp519
(S'big'
p520
F0.02705803978083205
tp521
a(S'great'
p522
F0.010525743341533602
tp523
a(S'scoopit'
p524
F0.006637390725053867
tp525
a(S'google'
p526
F0.005957608799095872
tp527
a(S'2014'
p528
F0.005631313474636033
tp529
assg78
(lp530
S'#bigdata'
p531
aS'#analytics'
p532
aS'#datascience'
p533
asg83
g477
sg87
(lp534
V@advnturecaptlst
p535
aV@BYAnalytics_en
p536
aV@relentless_1987
p537
asg92
(lp538
V@KirkDBorne
p539
aV@kdnuggets
p540
aV@Forbes
p541
asg97
S'1-0'
p542
sg99
S'1-0'
p543
sa(dp544
g25
I1
sg26
I45
sg27
(g28
(g32
S'~77\n\x01H\x16@'
p545
tp546
Rp547
g28
(g32
S'\x9a\xb6\xd6\xfe\xbd`\xd6?'
p548
tp549
Rp550
tp551
sg42
F0.998989898989899
sg43
(dp552
I0
(lp553
(S'great'
p554
F0.007588462183463353
tp555
a(S'db2'
p556
F0.006940527190400184
tp557
a(S'marketing'
p558
F0.006483161312943829
tp559
a(S'week'
p560
F0.006292592197337014
tp561
a(S'jobs'
p562
F0.005606543381152482
tp563
asI1
(lp564
(S'data'
p565
F0.035295386423300025
tp566
a(S'bigdata'
p567
F0.017965652914441306
tp568
a(S'analytics'
p569
F0.017891276375776678
tp570
a(S'business'
p571
F0.007664502309390091
tp572
a(S'top'
p573
F0.00680917211474685
tp574
asI2
(lp575
(S'big'
p576
F0.018005467746269363
tp577
a(S'bigdata'
p578
F0.008294989393168275
tp579
a(S'time'
p580
F0.00758537751351858
tp581
a(S'today'
p582
F0.006987809614866205
tp583
a(S'cloud'
p584
F0.005381845887237949
tp585
assg78
(lp586
S'#bigdata'
p587
aS'#analytics'
p588
aS'#data'
p589
asg83
g477
sg87
(lp590
V@eric_kavanagh
p591
aV@KirkDBorne
p592
aV@williammcknight
p593
asg92
(lp594
V@Forbes
p595
aV@VentureBeat
p596
aV@KirkDBorne
p597
asg97
S'1-3'
p598
sg99
S'1-3'
p599
sa(dp600
g25
I1
sg26
I254
sg27
(g28
(g32
S'\xf2M\xd8\x1bp0\x16@'
p601
tp602
Rp603
g28
(g32
S'\xfe3\xaf\x84\x07G\xd8?'
p604
tp605
Rp606
tp607
sg42
F0.9335221437241293
sg43
(dp608
I0
(lp609
(S'data'
p610
F0.02207844131530205
tp611
a(S'make'
p612
F0.005052268206111917
tp613
a(S'today'
p614
F0.004974255958188938
tp615
a(S'year'
p616
F0.0043696610367858525
tp617
a(S'bigdata'
p618
F0.004038108983113193
tp619
asI1
(lp620
(S'big'
p621
F0.008930400664882028
tp622
a(S'people'
p623
F0.006533755967456702
tp624
a(S'work'
p625
F0.006156864261006752
tp626
a(S'check'
p627
F0.005122828040746632
tp628
a(S'back'
p629
F0.004195094609485216
tp630
asI2
(lp631
(S'great'
p632
F0.01168887854275441
tp633
a(S'time'
p634
F0.00965198160973771
tp635
a(S'good'
p636
F0.008924518419374604
tp637
a(S'day'
p638
F0.006645133756236867
tp639
a(S'love'
p640
F0.0049186211177750915
tp641
assg78
(lp642
S'#bigdata'
p643
aS'#strataconf'
p644
aS'#analytics'
p645
asg83
g477
sg87
(lp646
V@BigDataAnalysis
p647
aV@bamboopinetree
p648
aV@archerdrive
p649
asg92
(lp650
V@TechCrunch
p651
aV@YouTube
p652
aV@Forbes
p653
asg97
S'1-2'
p654
sg99
S'1-2'
p655
sa(dp656
g25
I1
sg26
I2
sg27
(g28
(g32
S'fR\xa7\xfb\x1c\x9c\x16@'
p657
tp658
Rp659
g28
(g32
S'\xb0N\x86\x1eC\xb2\xe2?'
p660
tp661
Rp662
tp663
sg42
F1.0
sg43
(dp664
I0
(lp665
(S'huan'
p666
F0.18969957081545047
tp667
a(S'folback'
p668
F0.05236051502145917
tp669
a(S'ft'
p670
F0.04377682403433472
tp671
a(S'thelaw'
p672
F0.035193133047210265
tp673
a(S'4u'
p674
F0.018025751072961355
tp675
asI1
(lp676
(S'np'
p677
F0.12524590163934415
tp678
a(S'andrigomd'
p679
F0.11213114754098351
tp680
a(S'selamatpagisahabat'
p681
F0.08590163934426222
tp682
a(S'radiothomson'
p683
F0.08590163934426222
tp684
a(S'thomson'
p685
F0.05967213114754093
tp686
asI2
(lp687
(S'qxfyfehd9s'
p688
F0.11226765799256494
tp689
a(S'sevenesia'
p690
F0.0825278810408921
tp691
a(S'radiothomson'
p692
F0.06022304832713748
tp693
a(S'fm'
p694
F0.06022304832713748
tp695
a(S'g0iqpffrhr'
p696
F0.05278810408921927
tp697
assg78
(lp698
S'#selamatpagisahabat'
p699
aS'#rehatsore'
p700
aS'#radiothomson'
p701
asg83
g477
sg87
(lp702
V@Huan_andrigoMD
p703
aV@THOMSON_FM
p704
asg92
(lp705
V@DYMARAofficial
p706
aV@Huan_andrigoMD
p707
aV@ParaKSATRIA
p708
asg97
S'1-4'
p709
sg99
S'1-4'
p710
sa(dp711
g25
I2
sg26
I509
sg27
(g28
(g32
S'\x1c\xd0\xf5\xf6\xaa9\x16@'
p712
tp713
Rp714
g28
(g32
S'\xc9\x14#sE\xba\xd7?'
p715
tp716
Rp717
tp718
sg42
F0.9337669972000062
sg43
(dp719
I0
(lp720
(S'bigdata'
p721
F0.016117439228356265
tp722
a(S'great'
p723
F0.011255047731936177
tp724
a(S'good'
p725
F0.008176631431201679
tp726
a(S'today'
p727
F0.007028109141631009
tp728
a(S'world'
p729
F0.0059690209647728105
tp730
asI1
(lp731
(S'data'
p732
F0.023014259810314575
tp733
a(S'analytics'
p734
F0.009876413078219005
tp735
a(S'hadoop'
p736
F0.006780686273258286
tp737
a(S'day'
p738
F0.004596584539697043
tp739
a(S'google'
p740
F0.004382922413587791
tp741
asI2
(lp742
(S'data'
p743
F0.019305300228828818
tp744
a(S'big'
p745
F0.01674455215021468
tp746
a(S'check'
p747
F0.00473454916896536
tp748
a(S'cloud'
p749
F0.004592810345425832
tp750
a(S'team'
p751
F0.004040028933621674
tp752
assg78
(lp753
S'#bigdata'
p754
aS'#analytics'
p755
aS'#datascience'
p756
asg83
g28
(g32
S'\x00\x00\x00\x00\x00\x00\x00\x00'
p757
tp758
Rp759
sg87
(lp760
V@eric_kavanagh
p761
aV@KirkDBorne
p762
aV@EzraPenland
p763
asg92
(lp764
V@TechCrunch
p765
aV@Forbes
p766
aV@kdnuggets
p767
asg97
S'2-0'
p768
sg99
S'2-0'
p769
sasS'root'
p770
(dp771
S'id_'
p772
I1311288720
sS'description'
p773
VAgile consulting and engineering services for big data and data science.
p774
sS'friends_count'
p775
I269
sS'followers_count'
p776
I566
sS'name_'
p777
VSV Data Science
p778
sS'screen_name'
p779
VSVDataScience
p780
ss.