(dp0
S'directed'
p1
I01
sS'links'
p2
(lp3
(dp4
S'source'
p5
I0
sS'target'
p6
I6
sS'value'
p7
I1
sa(dp8
g5
I1
sg6
I6
sg7
I1
sa(dp9
g5
I2
sg6
I6
sg7
I1
sa(dp10
g5
I3
sg6
I6
sg7
I1
sa(dp11
g5
I4
sg6
I6
sg7
I1
sa(dp12
g5
I5
sg6
I6
sg7
I1
sasS'multigraph'
p13
I00
sS'graph'
p14
(lp15
sS'nodes'
p16
(lp17
(dp18
S'group'
p19
I0
sS'comm_size'
p20
I10
sS'sentiment'
p21
(cnumpy.core.multiarray
scalar
p22
(cnumpy
dtype
p23
(S'f8'
p24
I0
I1
tp25
Rp26
(I3
S'<'
p27
NNNI-1
I-1
I0
tp28
bS'G\xa0d\xc9ah\x16@'
p29
tp30
Rp31
g22
(g26
S'\x9e\xd5#B\xf1m\xda?'
p32
tp33
Rp34
tp35
sS'density'
p36
F0.9111111111111111
sS'topics'
p37
(dp38
I0
(lp39
(S'love'
p40
F0.009128454940167355
tp41
a(S'time'
p42
F0.008916657841787603
tp43
a(S'community'
p44
F0.00806946944826859
tp45
a(S'world'
p46
F0.005739701366091307
tp47
a(S'job'
p48
F0.005739701366091307
tp49
asI1
(lp50
(S'today'
p51
F0.014239414532148538
tp52
a(S'good'
p53
F0.010057501306847941
tp54
a(S'community'
p55
F0.009430214323052851
tp56
a(S'work'
p57
F0.006921066387872491
tp58
a(S'allygreer'
p59
F0.006293779404077402
tp60
asI2
(lp61
(S'people'
p62
F0.011976927110645068
tp63
a(S'great'
p64
F0.007152595700052483
tp65
a(S'octribe'
p66
F0.006523335081279538
tp67
a(S'things'
p68
F0.006103828002097574
tp69
a(S'forumcon'
p70
F0.006103828002097574
tp71
assS'hashtags'
p72
(lp73
S'#cmgr'
p74
aS'#cmgrchat'
p75
aS'#travel'
p76
asS'modularity'
p77
g22
(g26
S'\xe3>E\xcc\xae\xee\xcf?'
p78
tp79
Rp80
sS'most_connected'
p81
(lp82
V@caremjo
p83
aV@thatgirlcrystal
p84
aV@peoplefw
p85
asS'mentioned'
p86
(lp87
V@krystaelaine
p88
aV@mashable
p89
aV@caremjo
p90
asS'id'
p91
S'0-4'
p92
sS'name'
p93
g92
sa(dp94
g19
I0
sg20
I3
sg21
(g22
(g26
S'\x90\x05\xa1Z\xb6a\x16@'
p95
tp96
Rp97
g22
(g26
S'A\xe2\xe25$\x8c\xd8?'
p98
tp99
Rp100
tp101
sg36
F1.0
sg37
(dp102
I0
(lp103
(S'tech'
p104
F0.010543432647922613
tp105
a(S'ycd'
p106
F0.010018883759966265
tp107
a(S'mark490'
p108
F0.009494334872009916
tp109
a(S'viu'
p110
F0.007920688208140868
tp111
a(S'good'
p112
F0.007920688208140868
tp113
asI1
(lp114
(S'nanaimo'
p115
F0.051002519995616585
tp116
a(S'great'
p117
F0.03621124137175356
tp118
a(S'business'
p119
F0.018680837076804787
tp120
a(S'donpower'
p121
F0.01046346006354755
tp122
a(S'media'
p123
F0.0099156349293304
tp124
asI2
(lp125
(S'nanaimo'
p126
F0.026238608987115906
tp127
a(S'investnanaimo'
p128
F0.021525086414580116
tp129
a(S'social'
p130
F0.01628783911176257
tp131
a(S'innovationisl'
p132
F0.014716664920917305
tp133
a(S'news'
p134
F0.011050591808945022
tp135
assg72
(lp136
S'#nanaimo'
p137
aS'#vancouver'
p138
aS'#smcamp'
p139
asg77
g80
sg81
(lp140
V@InvestNanaimo
p141
aV@sashaangus
p142
aV@reedbotwright
p143
asg86
(lp144
V@YPNanaimo
p145
aV@donpower
p146
aV@squareone_ycd
p147
asg91
S'0-5'
p148
sg93
g148
sa(dp149
g19
I0
sg20
I17
sg21
(g22
(g26
S'\x8cPp\r\xa6\xb8\x16@'
p150
tp151
Rp152
g22
(g26
S'9 \xec\x8fe\xcf\xd9?'
p153
tp154
Rp155
tp156
sg36
F0.9264705882352942
sg37
(dp157
I0
(lp158
(S'join'
p159
F0.011721037107412298
tp160
a(S'san'
p161
F0.011279150694314755
tp162
a(S'cheers'
p163
F0.009290661835375818
tp164
a(S'facebookpage'
p165
F0.00873830381900389
tp166
a(S'business'
p167
F0.008296417405906347
tp168
asI1
(lp169
(S'today'
p170
F0.020898721580036514
tp171
a(S'day'
p172
F0.014337113548627874
tp173
a(S'newcosf'
p174
F0.013024791942346146
tp175
a(S'bayview'
p176
F0.008978466989644154
tp177
a(S'great'
p178
F0.008759746721930532
tp179
asI2
(lp180
(S'shop'
p181
F0.013630811471069164
tp182
a(S'sf'
p183
F0.012874144696307196
tp184
a(S'free'
p185
F0.010928430132633565
tp186
a(S'check'
p187
F0.010171763357871597
tp188
a(S'feel'
p189
F0.009523191836647052
tp190
assg72
(lp191
S'#sf'
p192
aS'#sanfrancisco'
p193
aS'#ff'
p194
asg77
g80
sg81
(lp195
V@InSymmetry
p196
aV@Omarmasry
p197
aV@NewCoFest
p198
asg86
(lp199
V@Townsqd
p200
aV@SFGate
p201
aV@ProLocalSF
p202
asg91
S'0-0'
p203
sg93
g203
sa(dp204
g19
I0
sg20
I11
sg21
(g22
(g26
S'N\x82\x0b!M\x94\x16@'
p205
tp206
Rp207
g22
(g26
S'3$\xdb\xf1\xe9\x01\xdc?'
p208
tp209
Rp210
tp211
sg36
F1.0
sg37
(dp212
I0
(lp213
(S'great'
p214
F0.013147324490076063
tp215
a(S'time'
p216
F0.010404216548778525
tp217
a(S'people'
p218
F0.010404216548778525
tp219
a(S'good'
p220
F0.009228598859651008
tp221
a(S'sf'
p222
F0.007857044889002239
tp223
asI1
(lp224
(S'today'
p225
F0.009709889849111225
tp226
a(S'team'
p227
F0.008721102695433912
tp228
a(S'mobile'
p229
F0.007534558111021134
tp230
a(S'google'
p231
F0.006348013526608357
tp232
a(S'office'
p233
F0.005556983803666506
tp234
asI2
(lp235
(S'shyp'
p236
F0.03199178406030251
tp237
a(S'love'
p238
F0.011064390489662467
tp239
a(S'day'
p240
F0.010676846164280244
tp241
a(S'app'
p242
F0.008157808049295794
tp243
a(S'business'
p244
F0.0068014029104580135
tp245
assg72
(lp246
S'#sanfrancisco'
p247
aS'#startups'
p248
aS'#ecommerce'
p249
asg77
g80
sg81
(lp250
V@kevingibbon
p251
aV@shyp
p252
aV@2pasc
p253
asg86
(lp254
V@TechCrunch
p255
aV@hunterwalk
p256
aV@shyp
p257
asg91
S'0-1'
p258
sg93
g258
sa(dp259
g19
I0
sg20
I5
sg21
(g22
(g26
S'\xf1F\x83e\xad\xc1\x16@'
p260
tp261
Rp262
g22
(g26
S'.\xe8\xe3\xe4\xf4\xd0\xd5?'
p263
tp264
Rp265
tp266
sg36
F1.0
sg37
(dp267
I0
(lp268
(S'storefront'
p269
F0.02858128882474684
tp270
a(S'great'
p271
F0.016345610842692763
tp272
a(S'pop'
p273
F0.013835728179707308
tp274
a(S'launch'
p275
F0.013521992846834127
tp276
a(S'storefrontchicago'
p277
F0.0075610215222436765
tp278
asI1
(lp279
(S'local'
p280
F0.02613525983487077
tp281
a(S'join'
p282
F0.017939533754249278
tp283
a(S'74g3isum3w'
p284
F0.014904079650315389
tp285
a(S'love'
p286
F0.011868625546381502
tp287
a(S'judy'
p288
F0.010654443904807947
tp289
asI2
(lp290
(S'follow'
p291
F0.02291035638332104
tp292
a(S'good'
p293
F0.009699039762840556
tp294
a(S'storefront'
p295
F0.009699039762840556
tp296
a(S'party'
p297
F0.00937681252819469
tp298
a(S'business'
p299
F0.008732358058902958
tp300
assg72
(lp301
S'#smallbiz'
p302
aS'#neweconomy'
p303
aS'#localism'
p304
asg77
g80
sg81
(lp305
V@bealocalist
p306
aV@MonadnockLocal
p307
aV@dfdfilm
p308
asg86
(lp309
V@bealocalist
p310
aV@RSFSocFinance
p311
aV@jwicks333
p312
asg91
S'0-2'
p313
sg93
g313
sa(dp314
g19
I0
sg20
I18
sg21
(g22
(g26
S'\xac!\xbd\xa9\xd2\x9d\x16@'
p315
tp316
Rp317
g22
(g26
S'\xb0\x99:\x9c!\xaf\xd8?'
p318
tp319
Rp320
tp321
sg36
F0.869281045751634
sg37
(dp322
I0
(lp323
(S'marketing'
p324
F0.008666151236456037
tp325
a(S'day'
p326
F0.007396808179185513
tp327
a(S'good'
p328
F0.007050623709020825
tp329
a(S'time'
p330
F0.006935228885632596
tp331
a(S'small'
p332
F0.006704439238856137
tp333
asI1
(lp334
(S'brooklyn'
p335
F0.02328888073478797
tp336
a(S'great'
p337
F0.015835521563142385
tp338
a(S'parkslope'
p339
F0.015491520370604897
tp340
a(S'business'
p341
F0.010675503675080059
tp342
a(S'wix'
p343
F0.009299498904930105
tp344
asI2
(lp345
(S'startup'
p346
F0.007811468820120689
tp347
a(S'iequalsu'
p348
F0.007331501457901292
tp349
a(S'love'
p350
F0.007331501457901292
tp351
a(S'infographic'
p352
F0.007091517776791593
tp353
a(S'people'
p354
F0.0069715259362367445
tp355
assg72
(lp356
S'#business'
p357
aS'#startup'
p358
aS'#marketing'
p359
asg77
g80
sg81
(lp360
V@NearMeCo
p361
aV@alectronic0
p362
aV@Anna_Siradze
p363
asg86
(lp364
V@Townsqd
p365
aV@Uber
p366
aV@FastCompany
p367
asg91
S'0-3'
p368
sg93
g368
sa(dp369
g19
I1
sg20
I64
sg21
(g22
(g26
S'\x13\x1d3\x13\x92\x9a\x16@'
p370
tp371
Rp372
g22
(g26
S'\x96`}x\xca\xab\xd9?'
p373
tp374
Rp375
tp376
sg36
F0.8794642857142857
sg37
(dp377
I0
(lp378
(S'day'
p379
F0.009941073419332104
tp380
a(S'time'
p381
F0.007106227106225543
tp382
a(S'brooklyn'
p383
F0.006532887402451183
tp384
a(S'happy'
p385
F0.005800286669850612
tp386
a(S'media'
p387
F0.005736582258320127
tp388
asI1
(lp389
(S'great'
p390
F0.015134093565400767
tp391
a(S'today'
p392
F0.013017658021919551
tp393
a(S'check'
p394
F0.008405723852542568
tp395
a(S'good'
p396
F0.007552831917109838
tp397
a(S'local'
p398
F0.00543639637362862
tp399
asI2
(lp400
(S'business'
p401
F0.009422771963207479
tp402
a(S'love'
p403
F0.009264192832221152
tp404
a(S'work'
p405
F0.007234379955596182
tp406
a(S'free'
p407
F0.006948937519820795
tp408
a(S'shyp'
p409
F0.005838883602916515
tp410
assg72
(lp411
S'#sanfrancisco'
p412
aS'#business'
p413
aS'#ff'
p414
asg77
g22
(g26
S'\x00\x00\x00\x00\x00\x00\x00\x00'
p415
tp416
Rp417
sg81
(lp418
V@krystaelaine
p419
aV@NearMeCo
p420
aV@peoplefw
p421
asg86
(lp422
V@Townsqd
p423
aV@TechCrunch
p424
aV@Uber
p425
asg91
S'1-0'
p426
sg93
S'1-0'
p427
sasS'root'
p428
(dp429
S'id_'
p430
I1426278492
sS'description'
p431
VA private neighborhood network for local businesses to meet, identify collaboration opportunities, and share expertise.
p432
sS'friends_count'
p433
I54
sS'followers_count'
p434
I68
sS'name_'
p435
VTownsquared
p436
sS'screen_name'
p437
VTownsqd
p438
ss.