(dp0
S'directed'
p1
I01
sS'links'
p2
(lp3
(dp4
S'source'
p5
I0
sS'target'
p6
I5
sS'value'
p7
I1
sa(dp8
g5
I1
sg6
I5
sg7
I1
sa(dp9
g5
I2
sg6
I5
sg7
I1
sa(dp10
g5
I3
sg6
I5
sg7
I1
sa(dp11
g5
I4
sg6
I5
sg7
I1
sasS'multigraph'
p12
I00
sS'graph'
p13
(lp14
sS'nodes'
p15
(lp16
(dp17
S'group'
p18
I0
sS'comm_size'
p19
I1366
sS'sentiment'
p20
(cnumpy.core.multiarray
scalar
p21
(cnumpy
dtype
p22
(S'f8'
p23
I0
I1
tp24
Rp25
(I3
S'<'
p26
NNNI-1
I-1
I0
tp27
bS'ml\xc7\x81(?\x16@'
p28
tp29
Rp30
g21
(g25
S'/Ms\xbf\xc9h\xde?'
p31
tp32
Rp33
tp34
sS'density'
p35
F1.0
sS'topics'
p36
(dp37
I0
(lp38
(S'corno'
p39
F0.19360910637483322
tp40
a(S'gabriele'
p41
F0.09422433258159488
tp42
a(S'caras'
p43
F0.02632379032312816
tp44
a(S'susangilbert'
p45
F0.013284183700357936
tp46
a(S'holiday'
p47
F0.012378843136911713
tp48
asI1
(lp49
(S'corno'
p50
F0.03036873081457062
tp51
a(S'hijiri'
p52
F0.015095856838420829
tp53
a(S'cmelakigor'
p54
F0.015095856838420829
tp55
a(S'kouya'
p56
F0.015095856838420829
tp57
a(S'letutto'
p58
F0.015068412320943471
tp59
asI2
(lp60
(S'gabriele'
p61
F0.1403743186996006
tp62
a(S'ionut'
p63
F0.02568102575792871
tp64
a(S'love'
p65
F0.013404229315177912
tp66
a(S'inspiration'
p67
F0.01260774811419408
tp68
a(S'sunrise'
p69
F0.010383093725239238
tp70
assS'hashtags'
p71
(lp72
S'#'
p73
aS'#_'
p74
aS'#djojk'
p75
asS'modularity'
p76
g21
(g25
S',\tj\x0eW\xe6\xac?'
p77
tp78
Rp79
sS'most_connected'
p80
(lp81
V@makoto4949
p82
aV@angelbeats2001
p83
aV@massa214
p84
asS'mentioned'
p85
(lp86
V@Gabriele_Corno
p87
aV@DennyJA_WORLD
p88
aV@fmpreuss
p89
asS'id'
p90
S'0-4'
p91
sS'name'
p92
g91
sa(dp93
g18
I0
sg19
I673
sg20
(g21
(g25
S'\xcf\x91<\xb3\xda6\x16@'
p94
tp95
Rp96
g21
(g25
S'\xa3\xbc\x0bC"\xfa\xdd?'
p97
tp98
Rp99
tp100
sg35
F1.0
sg36
(dp101
I0
(lp102
(S'corno'
p103
F0.1868377895694865
tp104
a(S'ionut'
p105
F0.028121941167379077
tp106
a(S'chaebae'
p107
F0.013654199508869425
tp108
a(S'ladyterezie'
p109
F0.013632734016794485
tp110
a(S'fmpreuss'
p111
F0.013482475572269902
tp112
asI1
(lp113
(S'corno'
p114
F0.03242118186869091
tp115
a(S'island'
p116
F0.012369383255963137
tp117
a(S'grand'
p118
F0.009770490921799536
tp119
a(S'hijiri'
p120
F0.008627874464537954
tp121
a(S'st'
p122
F0.008045364113777147
tp123
asI2
(lp124
(S'gabriele'
p125
F0.2225415658213209
tp126
a(S'caras'
p127
F0.02887465361815584
tp128
a(S'love'
p129
F0.012542091970956614
tp130
a(S'world'
p131
F0.011840559121680942
tp132
a(S'susangilbert'
p133
F0.010941720158546489
tp134
assg71
(lp135
g73
aS'#_'
p136
aS'#djojk'
p137
asg76
g79
sg80
(lp138
V@cineva4
p139
aV@amitdawn1988
p140
aV@laurenennis1234
p141
asg85
(lp142
V@Gabriele_Corno
p143
aV@DennyJA_WORLD
p144
aV@fmpreuss
p145
asg90
S'0-0'
p146
sg92
g146
sa(dp147
g18
I0
sg19
I1225
sg20
(g21
(g25
S'\x9e\xad\xfd\x11\x1e*\x16@'
p148
tp149
Rp150
g21
(g25
S':\xc3\x82\x1cK3\xde?'
p151
tp152
Rp153
tp154
sg35
F1.0
sg36
(dp155
I0
(lp156
(S'susangilbert'
p157
F0.017323385987578464
tp158
a(S'ladyterezie'
p159
F0.017323385987578464
tp160
a(S'kouya'
p161
F0.017256699870794406
tp162
a(S'caras'
p163
F0.014405868378275961
tp164
a(S'sunset'
p165
F0.012972116867418731
tp166
asI1
(lp167
(S'gabriele'
p168
F0.1838586898691306
tp169
a(S'corno'
p170
F0.13202969608173065
tp171
a(S'letutto'
p172
F0.016945101538009374
tp173
a(S'marshacollier'
p174
F0.016142947180592258
tp175
a(S'shellieblum'
p176
F0.014113005541414241
tp177
asI2
(lp178
(S'corno'
p179
F0.12205765170745383
tp180
a(S'gabriele'
p181
F0.0700084612793786
tp182
a(S'ionut'
p183
F0.031546606862672744
tp184
a(S'hijiri'
p185
F0.017072068741733892
tp186
a(S'cmelakigor'
p187
F0.014936211811288888
tp188
assg71
(lp189
g73
aS'#_'
p190
aS'#djojk'
p191
asg76
g79
sg80
(lp192
V@Dowhaniuk3
p193
aV@WasiAsghar1
p194
aV@leovicente3
p195
asg85
(lp196
V@Gabriele_Corno
p197
aV@DennyJA_WORLD
p198
aV@fmpreuss
p199
asg90
S'0-1'
p200
sg92
g200
sa(dp201
g18
I0
sg19
I902
sg20
(g21
(g25
S'\xbd\xb3\x04Nv)\x16@'
p202
tp203
Rp204
g21
(g25
S'L7\x88k\xf6\xee\xde?'
p205
tp206
Rp207
tp208
sg35
F1.0
sg36
(dp209
I0
(lp210
(S'gabriele'
p211
F0.038600139516582345
tp212
a(S'caras'
p213
F0.02230116407084118
tp214
a(S'love'
p215
F0.01716020934099787
tp216
a(S'shellieblum'
p217
F0.013936781134182936
tp218
a(S'dhabi'
p219
F0.009754589665853814
tp220
asI1
(lp221
(S'gabriele'
p222
F0.03537279179522333
tp223
a(S'ionut'
p224
F0.024827877101093097
tp225
a(S'cmelakigor'
p226
F0.014000657604127878
tp227
a(S'letutto'
p228
F0.014000657604127878
tp229
a(S'fmpreuss'
p230
F0.013967445274382586
tp231
asI2
(lp232
(S'corno'
p233
F0.21593506426803402
tp234
a(S'gabriele'
p235
F0.14426756295184875
tp236
a(S'world'
p237
F0.013596761559897096
tp238
a(S'chaebae'
p239
F0.01332389537347489
tp240
a(S'grand'
p241
F0.0073850430807562905
tp242
assg71
(lp243
g73
aS'#_'
p244
aS'#djojk'
p245
asg76
g79
sg80
(lp246
V@larrybird1323
p247
aV@antaress03
p248
aV@catalyn16
p249
asg85
(lp250
V@Gabriele_Corno
p251
aV@DennyJA_WORLD
p252
aV@fmpreuss
p253
asg90
S'0-2'
p254
sg92
g254
sa(dp255
g18
I0
sg19
I1054
sg20
(g21
(g25
S'\xed\xe6\xc1C\xba>\x16@'
p256
tp257
Rp258
g21
(g25
S"\x9c\x84\x19'R0\xd8?"
p259
tp260
Rp261
tp262
sg35
F0.8638623540584325
sg36
(dp263
I0
(lp264
(S'data'
p265
F0.02179790385491106
tp266
a(S'people'
p267
F0.007113220652680026
tp268
a(S'time'
p269
F0.006734261086170839
tp270
a(S'big'
p271
F0.005163573409191968
tp272
a(S'learn'
p273
F0.004320887004717589
tp274
asI1
(lp275
(S'day'
p276
F0.006413347622325134
tp277
a(S'analytics'
p278
F0.006281195908168129
tp279
a(S'love'
p280
F0.005817418194334113
tp281
a(S'bigdata'
p282
F0.00576256276581611
tp283
a(S'learning'
p284
F0.005615450480245105
tp285
asI2
(lp286
(S'great'
p287
F0.010736405006339102
tp288
a(S'good'
p289
F0.008891593619065458
tp290
a(S'today'
p291
F0.007610405630057116
tp292
a(S'google'
p293
F0.006110720464628745
tp294
a(S'make'
p295
F0.00584008191656303
tp296
assg71
(lp297
S'#bigdata'
p298
aS'#datascience'
p299
aS'#analytics'
p300
asg76
g79
sg80
(lp301
V@EzraPenland
p302
aV@advnturecaptlst
p303
aV@eric_kavanagh
p304
asg85
(lp305
V@TechCrunch
p306
aV@YouTube
p307
aV@mashable
p308
asg90
S'0-3'
p309
sg92
g309
sa(dp310
g18
I1
sg19
I5220
sg20
(g21
(g25
S'\xabh\xba\xec\x10:\x16@'
p311
tp312
Rp313
g21
(g25
S'\x9e\xcb\tZ\xb3\xcc\xda?'
p314
tp315
Rp316
tp317
sg35
F0.7661514551531796
sg36
(dp318
I0
(lp319
(S'corno'
p320
F0.08023545328294222
tp321
a(S'data'
p322
F0.01640438063681691
tp323
a(S'caras'
p324
F0.010763618902353148
tp325
a(S'gabriele'
p326
F0.007587951433089281
tp327
a(S'good'
p328
F0.0071465821741773
tp329
asI1
(lp330
(S'gabriele'
p331
F0.055475017291265846
tp332
a(S'ionut'
p333
F0.010785152056047806
tp334
a(S'world'
p335
F0.0086826336993289
tp336
a(S'check'
p337
F0.004346091742432874
tp338
a(S'back'
p339
F0.004302256661280134
tp340
asI2
(lp341
(S'gabriele'
p342
F0.025126570146750876
tp343
a(S'corno'
p344
F0.007914406029448364
tp345
a(S'day'
p346
F0.00673086454186566
tp347
a(S'love'
p348
F0.006224302531328279
tp349
a(S'shellieblum'
p350
F0.005656765463966956
tp351
assg71
(lp352
g73
aS'#_'
p353
aS'#djojk'
p354
asg76
g21
(g25
S'\x00\x00\x00\x00\x00\x00\x00\x00'
p355
tp356
Rp357
sg80
(lp358
V@EzraPenland
p359
aV@advnturecaptlst
p360
aV@AkiKakko
p361
asg85
(lp362
V@Gabriele_Corno
p363
aV@DennyJA_WORLD
p364
aV@fmpreuss
p365
asg90
S'1-0'
p366
sg92
S'1-0'
p367
sasS'root'
p368
(dp369
S'id_'
p370
I1244850380
sS'description'
p371
VWe train data scientists & engineers. Applications are open for our Fall 2014 Data Science Immersive program and Fall 2014 Data Fellowship.
p372
sS'friends_count'
p373
I202
sS'followers_count'
p374
I5417
sS'name_'
p375
VZipfian Academy
p376
sS'screen_name'
p377
VZipfianAcademy
p378
ss.